GAS LISTING C:\Users\Aluno\AppData\Local\Temp\ccsyUHCj.s 			page 1


   1               		.file	"funsapeLibSn74595.cpp"
   2               	__SP_H__ = 0x3e
   3               	__SP_L__ = 0x3d
   4               	__SREG__ = 0x3f
   5               	__tmp_reg__ = 0
   6               	__zero_reg__ = 1
   7               		.text
   8               		.section	.text._Z7getTickv,"ax",@progbits
   9               		.weak	_Z7getTickv
  11               	_Z7getTickv:
  12               	/* prologue: function */
  13               	/* frame size = 0 */
  14               	/* stack size = 0 */
  15               	.L__stack_usage = 0
  16 0000 60E0      		ldi r22,0
  17 0002 70E0      		ldi r23,0
  18 0004 CB01      		movw r24,r22
  19               	/* epilogue start */
  20 0006 0895      		ret
  22               		.section	.text._ZN7Sn74595C2Ev,"ax",@progbits
  23               	.global	_ZN7Sn74595C2Ev
  25               	_ZN7Sn74595C2Ev:
  26               	/* prologue: function */
  27               	/* frame size = 0 */
  28               	/* stack size = 0 */
  29               	.L__stack_usage = 0
  30 0000 FC01      		movw r30,r24
  31 0002 1486      		std Z+12,__zero_reg__
  32 0004 1386      		std Z+11,__zero_reg__
  33 0006 1482      		std Z+4,__zero_reg__
  34 0008 1382      		std Z+3,__zero_reg__
  35 000a 8081      		ld r24,Z
  36 000c 897F      		andi r24,lo8(-7)
  37 000e 8E7F      		andi r24,lo8(~(1<<0))
  38 0010 8083      		st Z,r24
  39 0012 1286      		std Z+10,__zero_reg__
  40 0014 1186      		std Z+9,__zero_reg__
  41 0016 1682      		std Z+6,__zero_reg__
  42 0018 1582      		std Z+5,__zero_reg__
  43 001a 1086      		std Z+8,__zero_reg__
  44 001c 1782      		std Z+7,__zero_reg__
  45 001e 1282      		std Z+2,__zero_reg__
  46 0020 1182      		std Z+1,__zero_reg__
  47               	/* epilogue start */
  48 0022 0895      		ret
  50               	.global	_ZN7Sn74595C1Ev
  51               		.set	_ZN7Sn74595C1Ev,_ZN7Sn74595C2Ev
  52               		.section	.text._ZN7Sn74595D2Ev,"ax",@progbits
  53               	.global	_ZN7Sn74595D2Ev
  55               	_ZN7Sn74595D2Ev:
  56               	/* prologue: function */
  57               	/* frame size = 0 */
  58               	/* stack size = 0 */
  59               	.L__stack_usage = 0
  60               	/* epilogue start */
  61 0000 0895      		ret
  63               	.global	_ZN7Sn74595D1Ev
GAS LISTING C:\Users\Aluno\AppData\Local\Temp\ccsyUHCj.s 			page 2


  64               		.set	_ZN7Sn74595D1Ev,_ZN7Sn74595D2Ev
  65               		.section	.text._ZN7Sn7459512getLastErrorEv,"ax",@progbits
  66               	.global	_ZN7Sn7459512getLastErrorEv
  68               	_ZN7Sn7459512getLastErrorEv:
  69               	/* prologue: function */
  70               	/* frame size = 0 */
  71               	/* stack size = 0 */
  72               	.L__stack_usage = 0
  73 0000 FC01      		movw r30,r24
  74 0002 8181      		ldd r24,Z+1
  75 0004 9281      		ldd r25,Z+2
  76               	/* epilogue start */
  77 0006 0895      		ret
  79               		.section	.text._ZN7Sn745954initENS_9DataOrderE,"ax",@progbits
  80               	.global	_ZN7Sn745954initENS_9DataOrderE
  82               	_ZN7Sn745954initENS_9DataOrderE:
  83 0000 0F93      		push r16
  84 0002 1F93      		push r17
  85 0004 CF93      		push r28
  86 0006 DF93      		push r29
  87               	/* prologue: function */
  88               	/* frame size = 0 */
  89               	/* stack size = 4 */
  90               	.L__stack_usage = 4
  91 0008 EC01      		movw r28,r24
  92 000a 8881      		ld r24,Y
  93 000c 082F      		mov r16,r24
  94 000e 0170      		andi r16,1
  95 0010 80FD      		sbrc r24,0
  96 0012 00C0      		rjmp .L6
  97 0014 80ED      		ldi r24,lo8(-48)
  98 0016 90E0      		ldi r25,0
  99 0018 9A83      		std Y+2,r25
 100 001a 8983      		std Y+1,r24
 101               	.L5:
 102 001c 802F      		mov r24,r16
 103               	/* epilogue start */
 104 001e DF91      		pop r29
 105 0020 CF91      		pop r28
 106 0022 1F91      		pop r17
 107 0024 0F91      		pop r16
 108 0026 0895      		ret
 109               	.L6:
 110 0028 162F      		mov r17,r22
 111 002a 8B85      		ldd r24,Y+11
 112 002c 9C85      		ldd r25,Y+12
 113 002e 0097      		sbiw r24,0
 114 0030 01F0      		breq .L8
 115 0032 65E0      		ldi r22,lo8(5)
 116 0034 0E94 0000 		call _ZN7GpioPin7setModeENS_4ModeE
 117 0038 AB85      		ldd r26,Y+11
 118 003a BC85      		ldd r27,Y+12
 119 003c 1296      		adiw r26,2
 120 003e ED91      		ld r30,X+
 121 0040 FC91      		ld r31,X
 122 0042 1397      		sbiw r26,2+1
 123 0044 9081      		ld r25,Z
GAS LISTING C:\Users\Aluno\AppData\Local\Temp\ccsyUHCj.s 			page 3


 124 0046 1696      		adiw r26,6
 125 0048 8C91      		ld r24,X
 126 004a 8095      		com r24
 127 004c 8923      		and r24,r25
 128 004e 8083      		st Z,r24
 129               	.L8:
 130 0050 8985      		ldd r24,Y+9
 131 0052 9A85      		ldd r25,Y+10
 132 0054 0097      		sbiw r24,0
 133 0056 01F0      		breq .L9
 134 0058 65E0      		ldi r22,lo8(5)
 135 005a 0E94 0000 		call _ZN7GpioPin7setModeENS_4ModeE
 136 005e A985      		ldd r26,Y+9
 137 0060 BA85      		ldd r27,Y+10
 138 0062 1296      		adiw r26,2
 139 0064 ED91      		ld r30,X+
 140 0066 FC91      		ld r31,X
 141 0068 1397      		sbiw r26,2+1
 142 006a 8081      		ld r24,Z
 143 006c 1696      		adiw r26,6
 144 006e 9C91      		ld r25,X
 145 0070 892B      		or r24,r25
 146 0072 8083      		st Z,r24
 147               	.L9:
 148 0074 65E0      		ldi r22,lo8(5)
 149 0076 8B81      		ldd r24,Y+3
 150 0078 9C81      		ldd r25,Y+4
 151 007a 0E94 0000 		call _ZN7GpioPin7setModeENS_4ModeE
 152 007e AB81      		ldd r26,Y+3
 153 0080 BC81      		ldd r27,Y+4
 154 0082 1296      		adiw r26,2
 155 0084 ED91      		ld r30,X+
 156 0086 FC91      		ld r31,X
 157 0088 1397      		sbiw r26,2+1
 158 008a 9081      		ld r25,Z
 159 008c 1696      		adiw r26,6
 160 008e 8C91      		ld r24,X
 161 0090 8095      		com r24
 162 0092 8923      		and r24,r25
 163 0094 8083      		st Z,r24
 164 0096 65E0      		ldi r22,lo8(5)
 165 0098 8D81      		ldd r24,Y+5
 166 009a 9E81      		ldd r25,Y+6
 167 009c 0E94 0000 		call _ZN7GpioPin7setModeENS_4ModeE
 168 00a0 AD81      		ldd r26,Y+5
 169 00a2 BE81      		ldd r27,Y+6
 170 00a4 1296      		adiw r26,2
 171 00a6 ED91      		ld r30,X+
 172 00a8 FC91      		ld r31,X
 173 00aa 1397      		sbiw r26,2+1
 174 00ac 9081      		ld r25,Z
 175 00ae 1696      		adiw r26,6
 176 00b0 8C91      		ld r24,X
 177 00b2 8095      		com r24
 178 00b4 8923      		and r24,r25
 179 00b6 8083      		st Z,r24
 180 00b8 65E0      		ldi r22,lo8(5)
GAS LISTING C:\Users\Aluno\AppData\Local\Temp\ccsyUHCj.s 			page 4


 181 00ba 8F81      		ldd r24,Y+7
 182 00bc 9885      		ldd r25,Y+8
 183 00be 0E94 0000 		call _ZN7GpioPin7setModeENS_4ModeE
 184 00c2 AF81      		ldd r26,Y+7
 185 00c4 B885      		ldd r27,Y+8
 186 00c6 1296      		adiw r26,2
 187 00c8 ED91      		ld r30,X+
 188 00ca FC91      		ld r31,X
 189 00cc 1397      		sbiw r26,2+1
 190 00ce 9081      		ld r25,Z
 191 00d0 1696      		adiw r26,6
 192 00d2 8C91      		ld r24,X
 193 00d4 8095      		com r24
 194 00d6 8923      		and r24,r25
 195 00d8 8083      		st Z,r24
 196 00da 8881      		ld r24,Y
 197 00dc 10FB      		bst r17,0
 198 00de 82F9      		bld r24,2
 199 00e0 8260      		ori r24,lo8(1<<1)
 200 00e2 8883      		st Y,r24
 201 00e4 1A82      		std Y+2,__zero_reg__
 202 00e6 1982      		std Y+1,__zero_reg__
 203 00e8 00C0      		rjmp .L5
 205               		.section	.text._ZN7Sn745957setPortEPK7GpioPinS2_S2_S2_S2_,"ax",@progbits
 206               	.global	_ZN7Sn745957setPortEPK7GpioPinS2_S2_S2_S2_
 208               	_ZN7Sn745957setPortEPK7GpioPinS2_S2_S2_S2_:
 209 0000 EF92      		push r14
 210 0002 FF92      		push r15
 211 0004 0F93      		push r16
 212 0006 1F93      		push r17
 213               	/* prologue: function */
 214               	/* frame size = 0 */
 215               	/* stack size = 4 */
 216               	.L__stack_usage = 4
 217 0008 FC01      		movw r30,r24
 218 000a 1486      		std Z+12,__zero_reg__
 219 000c 1386      		std Z+11,__zero_reg__
 220 000e 1482      		std Z+4,__zero_reg__
 221 0010 1382      		std Z+3,__zero_reg__
 222 0012 8081      		ld r24,Z
 223 0014 8D7F      		andi r24,lo8(-3)
 224 0016 8E7F      		andi r24,lo8(~(1<<0))
 225 0018 8083      		st Z,r24
 226 001a 1286      		std Z+10,__zero_reg__
 227 001c 1186      		std Z+9,__zero_reg__
 228 001e 1682      		std Z+6,__zero_reg__
 229 0020 1582      		std Z+5,__zero_reg__
 230 0022 1086      		std Z+8,__zero_reg__
 231 0024 1782      		std Z+7,__zero_reg__
 232 0026 6115      		cp r22,__zero_reg__
 233 0028 7105      		cpc r23,__zero_reg__
 234 002a 01F0      		breq .L17
 235 002c 4115      		cp r20,__zero_reg__
 236 002e 5105      		cpc r21,__zero_reg__
 237 0030 01F0      		breq .L17
 238 0032 2115      		cp r18,__zero_reg__
 239 0034 3105      		cpc r19,__zero_reg__
GAS LISTING C:\Users\Aluno\AppData\Local\Temp\ccsyUHCj.s 			page 5


 240 0036 01F4      		brne .L18
 241               	.L17:
 242 0038 81E1      		ldi r24,lo8(17)
 243 003a 90E0      		ldi r25,0
 244 003c 9283      		std Z+2,r25
 245 003e 8183      		std Z+1,r24
 246 0040 80E0      		ldi r24,0
 247               	.L16:
 248               	/* epilogue start */
 249 0042 1F91      		pop r17
 250 0044 0F91      		pop r16
 251 0046 FF90      		pop r15
 252 0048 EF90      		pop r14
 253 004a 0895      		ret
 254               	.L18:
 255 004c F486      		std Z+12,r15
 256 004e E386      		std Z+11,r14
 257 0050 7483      		std Z+4,r23
 258 0052 6383      		std Z+3,r22
 259 0054 8160      		ori r24,lo8(1<<0)
 260 0056 8083      		st Z,r24
 261 0058 1287      		std Z+10,r17
 262 005a 0187      		std Z+9,r16
 263 005c 5683      		std Z+6,r21
 264 005e 4583      		std Z+5,r20
 265 0060 3087      		std Z+8,r19
 266 0062 2783      		std Z+7,r18
 267 0064 1282      		std Z+2,__zero_reg__
 268 0066 1182      		std Z+1,__zero_reg__
 269 0068 81E0      		ldi r24,lo8(1)
 270 006a 00C0      		rjmp .L16
 272               		.section	.text._ZN7Sn7459514disableOutputsEv,"ax",@progbits
 273               	.global	_ZN7Sn7459514disableOutputsEv
 275               	_ZN7Sn7459514disableOutputsEv:
 276 0000 CF93      		push r28
 277 0002 DF93      		push r29
 278               	/* prologue: function */
 279               	/* frame size = 0 */
 280               	/* stack size = 2 */
 281               	.L__stack_usage = 2
 282 0004 FC01      		movw r30,r24
 283 0006 9081      		ld r25,Z
 284 0008 91FB      		bst r25,1
 285 000a 8827      		clr r24
 286 000c 80F9      		bld r24,0
 287 000e 91FD      		sbrc r25,1
 288 0010 00C0      		rjmp .L27
 289 0012 24E0      		ldi r18,lo8(4)
 290 0014 30E0      		ldi r19,0
 291 0016 3283      		std Z+2,r19
 292 0018 2183      		std Z+1,r18
 293               	.L26:
 294               	/* epilogue start */
 295 001a DF91      		pop r29
 296 001c CF91      		pop r28
 297 001e 0895      		ret
 298               	.L27:
GAS LISTING C:\Users\Aluno\AppData\Local\Temp\ccsyUHCj.s 			page 6


 299 0020 A185      		ldd r26,Z+9
 300 0022 B285      		ldd r27,Z+10
 301 0024 1097      		sbiw r26,0
 302 0026 01F4      		brne .L29
 303 0028 80ED      		ldi r24,lo8(-48)
 304 002a 90E0      		ldi r25,0
 305 002c 9283      		std Z+2,r25
 306 002e 8183      		std Z+1,r24
 307 0030 80E0      		ldi r24,0
 308 0032 00C0      		rjmp .L26
 309               	.L29:
 310 0034 1296      		adiw r26,2
 311 0036 CD91      		ld r28,X+
 312 0038 DC91      		ld r29,X
 313 003a 1397      		sbiw r26,2+1
 314 003c 9881      		ld r25,Y
 315 003e 1696      		adiw r26,6
 316 0040 2C91      		ld r18,X
 317 0042 922B      		or r25,r18
 318 0044 9883      		st Y,r25
 319 0046 1282      		std Z+2,__zero_reg__
 320 0048 1182      		std Z+1,__zero_reg__
 321 004a 00C0      		rjmp .L26
 323               		.section	.text._ZN7Sn7459513enableOutputsEv,"ax",@progbits
 324               	.global	_ZN7Sn7459513enableOutputsEv
 326               	_ZN7Sn7459513enableOutputsEv:
 327 0000 CF93      		push r28
 328 0002 DF93      		push r29
 329               	/* prologue: function */
 330               	/* frame size = 0 */
 331               	/* stack size = 2 */
 332               	.L__stack_usage = 2
 333 0004 FC01      		movw r30,r24
 334 0006 9081      		ld r25,Z
 335 0008 91FB      		bst r25,1
 336 000a 8827      		clr r24
 337 000c 80F9      		bld r24,0
 338 000e 91FD      		sbrc r25,1
 339 0010 00C0      		rjmp .L31
 340 0012 24E0      		ldi r18,lo8(4)
 341 0014 30E0      		ldi r19,0
 342 0016 3283      		std Z+2,r19
 343 0018 2183      		std Z+1,r18
 344               	.L30:
 345               	/* epilogue start */
 346 001a DF91      		pop r29
 347 001c CF91      		pop r28
 348 001e 0895      		ret
 349               	.L31:
 350 0020 A185      		ldd r26,Z+9
 351 0022 B285      		ldd r27,Z+10
 352 0024 1097      		sbiw r26,0
 353 0026 01F4      		brne .L33
 354 0028 80ED      		ldi r24,lo8(-48)
 355 002a 90E0      		ldi r25,0
 356 002c 9283      		std Z+2,r25
 357 002e 8183      		std Z+1,r24
GAS LISTING C:\Users\Aluno\AppData\Local\Temp\ccsyUHCj.s 			page 7


 358 0030 80E0      		ldi r24,0
 359 0032 00C0      		rjmp .L30
 360               	.L33:
 361 0034 1296      		adiw r26,2
 362 0036 CD91      		ld r28,X+
 363 0038 DC91      		ld r29,X
 364 003a 1397      		sbiw r26,2+1
 365 003c 2881      		ld r18,Y
 366 003e 1696      		adiw r26,6
 367 0040 9C91      		ld r25,X
 368 0042 9095      		com r25
 369 0044 9223      		and r25,r18
 370 0046 9883      		st Y,r25
 371 0048 1282      		std Z+2,__zero_reg__
 372 004a 1182      		std Z+1,__zero_reg__
 373 004c 00C0      		rjmp .L30
 375               		.section	.text._ZN7Sn745959clearDataEv,"ax",@progbits
 376               	.global	_ZN7Sn745959clearDataEv
 378               	_ZN7Sn745959clearDataEv:
 379 0000 CF93      		push r28
 380 0002 DF93      		push r29
 381               	/* prologue: function */
 382               	/* frame size = 0 */
 383               	/* stack size = 2 */
 384               	.L__stack_usage = 2
 385 0004 FC01      		movw r30,r24
 386 0006 9081      		ld r25,Z
 387 0008 91FB      		bst r25,1
 388 000a 8827      		clr r24
 389 000c 80F9      		bld r24,0
 390 000e 91FD      		sbrc r25,1
 391 0010 00C0      		rjmp .L35
 392 0012 24E0      		ldi r18,lo8(4)
 393 0014 30E0      		ldi r19,0
 394 0016 3283      		std Z+2,r19
 395 0018 2183      		std Z+1,r18
 396               	.L34:
 397               	/* epilogue start */
 398 001a DF91      		pop r29
 399 001c CF91      		pop r28
 400 001e 0895      		ret
 401               	.L35:
 402 0020 A385      		ldd r26,Z+11
 403 0022 B485      		ldd r27,Z+12
 404 0024 1097      		sbiw r26,0
 405 0026 01F4      		brne .L37
 406 0028 80ED      		ldi r24,lo8(-48)
 407 002a 90E0      		ldi r25,0
 408 002c 9283      		std Z+2,r25
 409 002e 8183      		std Z+1,r24
 410 0030 80E0      		ldi r24,0
 411 0032 00C0      		rjmp .L34
 412               	.L37:
 413 0034 1296      		adiw r26,2
 414 0036 CD91      		ld r28,X+
 415 0038 DC91      		ld r29,X
 416 003a 1397      		sbiw r26,2+1
GAS LISTING C:\Users\Aluno\AppData\Local\Temp\ccsyUHCj.s 			page 8


 417 003c 9881      		ld r25,Y
 418 003e 1696      		adiw r26,6
 419 0040 2C91      		ld r18,X
 420 0042 922B      		or r25,r18
 421 0044 9883      		st Y,r25
 422 0046 C385      		ldd r28,Z+11
 423 0048 D485      		ldd r29,Z+12
 424 004a AA81      		ldd r26,Y+2
 425 004c BB81      		ldd r27,Y+3
 426 004e 2C91      		ld r18,X
 427 0050 9E81      		ldd r25,Y+6
 428 0052 9095      		com r25
 429 0054 9223      		and r25,r18
 430 0056 9C93      		st X,r25
 431 0058 1282      		std Z+2,__zero_reg__
 432 005a 1182      		std Z+1,__zero_reg__
 433 005c 00C0      		rjmp .L34
 435               		.section	.text._ZN7Sn745958sendByteEh,"ax",@progbits
 436               	.global	_ZN7Sn745958sendByteEh
 438               	_ZN7Sn745958sendByteEh:
 439 0000 CF93      		push r28
 440 0002 DF93      		push r29
 441               	/* prologue: function */
 442               	/* frame size = 0 */
 443               	/* stack size = 2 */
 444               	.L__stack_usage = 2
 445 0004 FC01      		movw r30,r24
 446 0006 9081      		ld r25,Z
 447 0008 91FB      		bst r25,1
 448 000a 8827      		clr r24
 449 000c 80F9      		bld r24,0
 450 000e 91FD      		sbrc r25,1
 451 0010 00C0      		rjmp .L39
 452 0012 24E0      		ldi r18,lo8(4)
 453 0014 30E0      		ldi r19,0
 454 0016 3283      		std Z+2,r19
 455 0018 2183      		std Z+1,r18
 456               	.L38:
 457               	/* epilogue start */
 458 001a DF91      		pop r29
 459 001c CF91      		pop r28
 460 001e 0895      		ret
 461               	.L39:
 462 0020 70E0      		ldi r23,0
 463 0022 92FF      		sbrs r25,2
 464 0024 00C0      		rjmp .L48
 465 0026 27E0      		ldi r18,lo8(7)
 466 0028 30E0      		ldi r19,0
 467               	.L45:
 468 002a C381      		ldd r28,Z+3
 469 002c D481      		ldd r29,Z+4
 470 002e AA81      		ldd r26,Y+2
 471 0030 BB81      		ldd r27,Y+3
 472 0032 9E81      		ldd r25,Y+6
 473 0034 AB01      		movw r20,r22
 474 0036 022E      		mov r0,r18
 475 0038 00C0      		rjmp 2f
GAS LISTING C:\Users\Aluno\AppData\Local\Temp\ccsyUHCj.s 			page 9


 476               		1:
 477 003a 5595      		asr r21
 478 003c 4795      		ror r20
 479               		2:
 480 003e 0A94      		dec r0
 481 0040 02F4      		brpl 1b
 482 0042 40FF      		sbrs r20,0
 483 0044 00C0      		rjmp .L42
 484 0046 4C91      		ld r20,X
 485 0048 942B      		or r25,r20
 486               	.L53:
 487 004a 9C93      		st X,r25
 488 004c C581      		ldd r28,Z+5
 489 004e D681      		ldd r29,Z+6
 490 0050 AA81      		ldd r26,Y+2
 491 0052 BB81      		ldd r27,Y+3
 492 0054 9C91      		ld r25,X
 493 0056 4E81      		ldd r20,Y+6
 494 0058 942B      		or r25,r20
 495 005a 9C93      		st X,r25
 496 005c C581      		ldd r28,Z+5
 497 005e D681      		ldd r29,Z+6
 498 0060 AA81      		ldd r26,Y+2
 499 0062 BB81      		ldd r27,Y+3
 500 0064 4C91      		ld r20,X
 501 0066 9E81      		ldd r25,Y+6
 502 0068 9095      		com r25
 503 006a 9423      		and r25,r20
 504 006c 9C93      		st X,r25
 505 006e 2150      		subi r18,1
 506 0070 3109      		sbc r19,__zero_reg__
 507 0072 00F4      		brcc .L45
 508               	.L44:
 509 0074 1282      		std Z+2,__zero_reg__
 510 0076 1182      		std Z+1,__zero_reg__
 511 0078 00C0      		rjmp .L38
 512               	.L42:
 513 007a 4C91      		ld r20,X
 514 007c 9095      		com r25
 515 007e 9423      		and r25,r20
 516 0080 00C0      		rjmp .L53
 517               	.L48:
 518 0082 30E0      		ldi r19,0
 519 0084 20E0      		ldi r18,0
 520               	.L41:
 521 0086 C381      		ldd r28,Z+3
 522 0088 D481      		ldd r29,Z+4
 523 008a AA81      		ldd r26,Y+2
 524 008c BB81      		ldd r27,Y+3
 525 008e 9E81      		ldd r25,Y+6
 526 0090 AB01      		movw r20,r22
 527 0092 022E      		mov r0,r18
 528 0094 00C0      		rjmp 2f
 529               		1:
 530 0096 5595      		asr r21
 531 0098 4795      		ror r20
 532               		2:
GAS LISTING C:\Users\Aluno\AppData\Local\Temp\ccsyUHCj.s 			page 10


 533 009a 0A94      		dec r0
 534 009c 02F4      		brpl 1b
 535 009e 40FF      		sbrs r20,0
 536 00a0 00C0      		rjmp .L46
 537 00a2 4C91      		ld r20,X
 538 00a4 942B      		or r25,r20
 539               	.L54:
 540 00a6 9C93      		st X,r25
 541 00a8 C581      		ldd r28,Z+5
 542 00aa D681      		ldd r29,Z+6
 543 00ac AA81      		ldd r26,Y+2
 544 00ae BB81      		ldd r27,Y+3
 545 00b0 9C91      		ld r25,X
 546 00b2 4E81      		ldd r20,Y+6
 547 00b4 942B      		or r25,r20
 548 00b6 9C93      		st X,r25
 549 00b8 C581      		ldd r28,Z+5
 550 00ba D681      		ldd r29,Z+6
 551 00bc AA81      		ldd r26,Y+2
 552 00be BB81      		ldd r27,Y+3
 553 00c0 4C91      		ld r20,X
 554 00c2 9E81      		ldd r25,Y+6
 555 00c4 9095      		com r25
 556 00c6 9423      		and r25,r20
 557 00c8 9C93      		st X,r25
 558 00ca 2F5F      		subi r18,-1
 559 00cc 3F4F      		sbci r19,-1
 560 00ce 2830      		cpi r18,8
 561 00d0 3105      		cpc r19,__zero_reg__
 562 00d2 01F4      		brne .L41
 563 00d4 00C0      		rjmp .L44
 564               	.L46:
 565 00d6 4C91      		ld r20,X
 566 00d8 9095      		com r25
 567 00da 9423      		and r25,r20
 568 00dc 00C0      		rjmp .L54
 570               		.section	.text._ZN7Sn745955storeEv,"ax",@progbits
 571               	.global	_ZN7Sn745955storeEv
 573               	_ZN7Sn745955storeEv:
 574 0000 CF93      		push r28
 575 0002 DF93      		push r29
 576               	/* prologue: function */
 577               	/* frame size = 0 */
 578               	/* stack size = 2 */
 579               	.L__stack_usage = 2
 580 0004 FC01      		movw r30,r24
 581 0006 9081      		ld r25,Z
 582 0008 91FB      		bst r25,1
 583 000a 8827      		clr r24
 584 000c 80F9      		bld r24,0
 585 000e 91FD      		sbrc r25,1
 586 0010 00C0      		rjmp .L56
 587 0012 24E0      		ldi r18,lo8(4)
 588 0014 30E0      		ldi r19,0
 589 0016 3283      		std Z+2,r19
 590 0018 2183      		std Z+1,r18
 591               	.L55:
GAS LISTING C:\Users\Aluno\AppData\Local\Temp\ccsyUHCj.s 			page 11


 592               	/* epilogue start */
 593 001a DF91      		pop r29
 594 001c CF91      		pop r28
 595 001e 0895      		ret
 596               	.L56:
 597 0020 C781      		ldd r28,Z+7
 598 0022 D085      		ldd r29,Z+8
 599 0024 AA81      		ldd r26,Y+2
 600 0026 BB81      		ldd r27,Y+3
 601 0028 9C91      		ld r25,X
 602 002a 2E81      		ldd r18,Y+6
 603 002c 922B      		or r25,r18
 604 002e 9C93      		st X,r25
 605 0030 C781      		ldd r28,Z+7
 606 0032 D085      		ldd r29,Z+8
 607 0034 AA81      		ldd r26,Y+2
 608 0036 BB81      		ldd r27,Y+3
 609 0038 2C91      		ld r18,X
 610 003a 9E81      		ldd r25,Y+6
 611 003c 9095      		com r25
 612 003e 9223      		and r25,r18
 613 0040 9C93      		st X,r25
 614 0042 1282      		std Z+2,__zero_reg__
 615 0044 1182      		std Z+1,__zero_reg__
 616 0046 00C0      		rjmp .L55
 618               		.ident	"GCC: (AVR_8_bit_GNU_Toolchain_3.7.0_1796) 7.3.0"
GAS LISTING C:\Users\Aluno\AppData\Local\Temp\ccsyUHCj.s 			page 12


DEFINED SYMBOLS
                            *ABS*:0000000000000000 funsapeLibSn74595.cpp
C:\Users\Aluno\AppData\Local\Temp\ccsyUHCj.s:2      *ABS*:000000000000003e __SP_H__
C:\Users\Aluno\AppData\Local\Temp\ccsyUHCj.s:3      *ABS*:000000000000003d __SP_L__
C:\Users\Aluno\AppData\Local\Temp\ccsyUHCj.s:4      *ABS*:000000000000003f __SREG__
C:\Users\Aluno\AppData\Local\Temp\ccsyUHCj.s:5      *ABS*:0000000000000000 __tmp_reg__
C:\Users\Aluno\AppData\Local\Temp\ccsyUHCj.s:6      *ABS*:0000000000000001 __zero_reg__
C:\Users\Aluno\AppData\Local\Temp\ccsyUHCj.s:11     .text._Z7getTickv:0000000000000000 _Z7getTickv
C:\Users\Aluno\AppData\Local\Temp\ccsyUHCj.s:25     .text._ZN7Sn74595C2Ev:0000000000000000 _ZN7Sn74595C2Ev
C:\Users\Aluno\AppData\Local\Temp\ccsyUHCj.s:25     .text._ZN7Sn74595C2Ev:0000000000000000 _ZN7Sn74595C1Ev
C:\Users\Aluno\AppData\Local\Temp\ccsyUHCj.s:55     .text._ZN7Sn74595D2Ev:0000000000000000 _ZN7Sn74595D2Ev
C:\Users\Aluno\AppData\Local\Temp\ccsyUHCj.s:55     .text._ZN7Sn74595D2Ev:0000000000000000 _ZN7Sn74595D1Ev
C:\Users\Aluno\AppData\Local\Temp\ccsyUHCj.s:68     .text._ZN7Sn7459512getLastErrorEv:0000000000000000 _ZN7Sn7459512getLastErrorEv
C:\Users\Aluno\AppData\Local\Temp\ccsyUHCj.s:82     .text._ZN7Sn745954initENS_9DataOrderE:0000000000000000 _ZN7Sn745954initENS_9DataOrderE
C:\Users\Aluno\AppData\Local\Temp\ccsyUHCj.s:208    .text._ZN7Sn745957setPortEPK7GpioPinS2_S2_S2_S2_:0000000000000000 _ZN7Sn745957setPortEPK7GpioPinS2_S2_S2_S2_
C:\Users\Aluno\AppData\Local\Temp\ccsyUHCj.s:275    .text._ZN7Sn7459514disableOutputsEv:0000000000000000 _ZN7Sn7459514disableOutputsEv
C:\Users\Aluno\AppData\Local\Temp\ccsyUHCj.s:326    .text._ZN7Sn7459513enableOutputsEv:0000000000000000 _ZN7Sn7459513enableOutputsEv
C:\Users\Aluno\AppData\Local\Temp\ccsyUHCj.s:378    .text._ZN7Sn745959clearDataEv:0000000000000000 _ZN7Sn745959clearDataEv
C:\Users\Aluno\AppData\Local\Temp\ccsyUHCj.s:438    .text._ZN7Sn745958sendByteEh:0000000000000000 _ZN7Sn745958sendByteEh
C:\Users\Aluno\AppData\Local\Temp\ccsyUHCj.s:573    .text._ZN7Sn745955storeEv:0000000000000000 _ZN7Sn745955storeEv

UNDEFINED SYMBOLS
_ZN7GpioPin7setModeENS_4ModeE
