GAS LISTING C:\Users\Aluno\AppData\Local\Temp\cceVHCPv.s 			page 1


   1               		.file	"funsapeLibStepper.cpp"
   2               	__SP_H__ = 0x3e
   3               	__SP_L__ = 0x3d
   4               	__SREG__ = 0x3f
   5               	__tmp_reg__ = 0
   6               	__zero_reg__ = 1
   7               		.text
   8               		.section	.text._Z7getTickv,"ax",@progbits
   9               		.weak	_Z7getTickv
  11               	_Z7getTickv:
  12               	/* prologue: function */
  13               	/* frame size = 0 */
  14               	/* stack size = 0 */
  15               	.L__stack_usage = 0
  16 0000 60E0      		ldi r22,0
  17 0002 70E0      		ldi r23,0
  18 0004 CB01      		movw r24,r22
  19               	/* epilogue start */
  20 0006 0895      		ret
  22               		.section	.text._ZN7StepperC2Ev,"ax",@progbits
  23               	.global	_ZN7StepperC2Ev
  25               	_ZN7StepperC2Ev:
  26               	/* prologue: function */
  27               	/* frame size = 0 */
  28               	/* stack size = 0 */
  29               	.L__stack_usage = 0
  30 0000 FC01      		movw r30,r24
  31 0002 1182      		std Z+1,__zero_reg__
  32 0004 1082      		st Z,__zero_reg__
  33 0006 1382      		std Z+3,__zero_reg__
  34 0008 1282      		std Z+2,__zero_reg__
  35 000a 1582      		std Z+5,__zero_reg__
  36 000c 1482      		std Z+4,__zero_reg__
  37 000e 1782      		std Z+7,__zero_reg__
  38 0010 1682      		std Z+6,__zero_reg__
  39 0012 1386      		std Z+11,__zero_reg__
  40 0014 8085      		ldd r24,Z+8
  41 0016 817F      		andi r24,lo8(-15)
  42 0018 8E7F      		andi r24,lo8(~(1<<0))
  43 001a 8087      		std Z+8,r24
  44 001c 1286      		std Z+10,__zero_reg__
  45 001e 1186      		std Z+9,__zero_reg__
  46               	/* epilogue start */
  47 0020 0895      		ret
  49               	.global	_ZN7StepperC1Ev
  50               		.set	_ZN7StepperC1Ev,_ZN7StepperC2Ev
  51               		.section	.text._ZN7StepperD2Ev,"ax",@progbits
  52               	.global	_ZN7StepperD2Ev
  54               	_ZN7StepperD2Ev:
  55               	/* prologue: function */
  56               	/* frame size = 0 */
  57               	/* stack size = 0 */
  58               	.L__stack_usage = 0
  59               	/* epilogue start */
  60 0000 0895      		ret
  62               	.global	_ZN7StepperD1Ev
  63               		.set	_ZN7StepperD1Ev,_ZN7StepperD2Ev
GAS LISTING C:\Users\Aluno\AppData\Local\Temp\cceVHCPv.s 			page 2


  64               		.section	.text._ZN7Stepper12getLastErrorEv,"ax",@progbits
  65               	.global	_ZN7Stepper12getLastErrorEv
  67               	_ZN7Stepper12getLastErrorEv:
  68               	/* prologue: function */
  69               	/* frame size = 0 */
  70               	/* stack size = 0 */
  71               	.L__stack_usage = 0
  72 0000 FC01      		movw r30,r24
  73 0002 8185      		ldd r24,Z+9
  74 0004 9285      		ldd r25,Z+10
  75               	/* epilogue start */
  76 0006 0895      		ret
  78               		.section	.text._ZN7Stepper7setModeENS_4ModeE,"ax",@progbits
  79               	.global	_ZN7Stepper7setModeENS_4ModeE
  81               	_ZN7Stepper7setModeENS_4ModeE:
  82               	/* prologue: function */
  83               	/* frame size = 0 */
  84               	/* stack size = 0 */
  85               	.L__stack_usage = 0
  86 0000 FC01      		movw r30,r24
  87 0002 6387      		std Z+11,r22
  88 0004 1286      		std Z+10,__zero_reg__
  89 0006 1186      		std Z+9,__zero_reg__
  90 0008 81E0      		ldi r24,lo8(1)
  91               	/* epilogue start */
  92 000a 0895      		ret
  94               		.section	.text._ZN7Stepper7_doStepEh,"ax",@progbits
  95               	.global	_ZN7Stepper7_doStepEh
  97               	_ZN7Stepper7_doStepEh:
  98 0000 CF93      		push r28
  99 0002 DF93      		push r29
 100               	/* prologue: function */
 101               	/* frame size = 0 */
 102               	/* stack size = 2 */
 103               	.L__stack_usage = 2
 104 0004 DC01      		movw r26,r24
 105 0006 6830      		cpi r22,lo8(8)
 106 0008 00F0      		brlo .+2
 107 000a 00C0      		rjmp .L6
 108 000c E62F      		mov r30,r22
 109 000e F0E0      		ldi r31,0
 110 0010 E050      		subi r30,lo8(-(gs(.L9)))
 111 0012 F040      		sbci r31,hi8(-(gs(.L9)))
 112 0014 CD91      		ld r28,X+
 113 0016 DC91      		ld r29,X
 114 0018 1197      		sbiw r26,1
 115 001a 0C94 0000 		jmp __tablejump2__
 116               		.p2align	1
 117               	.L9:
 118 001e 0000      		.word gs(.L8)
 119 0020 0000      		.word gs(.L10)
 120 0022 0000      		.word gs(.L11)
 121 0024 0000      		.word gs(.L12)
 122 0026 0000      		.word gs(.L13)
 123 0028 0000      		.word gs(.L14)
 124 002a 0000      		.word gs(.L15)
 125 002c 0000      		.word gs(.L16)
GAS LISTING C:\Users\Aluno\AppData\Local\Temp\cceVHCPv.s 			page 3


 126               	.L8:
 127 002e EA81      		ldd r30,Y+2
 128 0030 FB81      		ldd r31,Y+3
 129 0032 8081      		ld r24,Z
 130 0034 9E81      		ldd r25,Y+6
 131 0036 892B      		or r24,r25
 132 0038 8083      		st Z,r24
 133 003a 1296      		adiw r26,2
 134 003c CD91      		ld r28,X+
 135 003e DC91      		ld r29,X
 136 0040 1397      		sbiw r26,2+1
 137 0042 EA81      		ldd r30,Y+2
 138 0044 FB81      		ldd r31,Y+3
 139 0046 9081      		ld r25,Z
 140 0048 8E81      		ldd r24,Y+6
 141 004a 8095      		com r24
 142 004c 8923      		and r24,r25
 143               	.L22:
 144 004e 8083      		st Z,r24
 145 0050 1496      		adiw r26,4
 146 0052 CD91      		ld r28,X+
 147 0054 DC91      		ld r29,X
 148 0056 1597      		sbiw r26,4+1
 149 0058 EA81      		ldd r30,Y+2
 150 005a FB81      		ldd r31,Y+3
 151 005c 9081      		ld r25,Z
 152 005e 8E81      		ldd r24,Y+6
 153 0060 8095      		com r24
 154 0062 8923      		and r24,r25
 155               	.L21:
 156 0064 8083      		st Z,r24
 157 0066 1696      		adiw r26,6
 158 0068 0D90      		ld __tmp_reg__,X+
 159 006a BC91      		ld r27,X
 160 006c A02D      		mov r26,__tmp_reg__
 161 006e 1296      		adiw r26,2
 162 0070 ED91      		ld r30,X+
 163 0072 FC91      		ld r31,X
 164 0074 1397      		sbiw r26,2+1
 165 0076 9081      		ld r25,Z
 166 0078 1696      		adiw r26,6
 167 007a 8C91      		ld r24,X
 168 007c 8095      		com r24
 169 007e 8923      		and r24,r25
 170               	.L19:
 171 0080 8083      		st Z,r24
 172               	.L6:
 173               	/* epilogue start */
 174 0082 DF91      		pop r29
 175 0084 CF91      		pop r28
 176 0086 0895      		ret
 177               	.L10:
 178 0088 EA81      		ldd r30,Y+2
 179 008a FB81      		ldd r31,Y+3
 180 008c 8081      		ld r24,Z
 181 008e 9E81      		ldd r25,Y+6
 182 0090 892B      		or r24,r25
GAS LISTING C:\Users\Aluno\AppData\Local\Temp\cceVHCPv.s 			page 4


 183               	.L23:
 184 0092 8083      		st Z,r24
 185 0094 1296      		adiw r26,2
 186 0096 CD91      		ld r28,X+
 187 0098 DC91      		ld r29,X
 188 009a 1397      		sbiw r26,2+1
 189 009c EA81      		ldd r30,Y+2
 190 009e FB81      		ldd r31,Y+3
 191 00a0 8081      		ld r24,Z
 192 00a2 9E81      		ldd r25,Y+6
 193 00a4 892B      		or r24,r25
 194 00a6 00C0      		rjmp .L22
 195               	.L11:
 196 00a8 EA81      		ldd r30,Y+2
 197 00aa FB81      		ldd r31,Y+3
 198 00ac 9081      		ld r25,Z
 199 00ae 8E81      		ldd r24,Y+6
 200 00b0 8095      		com r24
 201 00b2 8923      		and r24,r25
 202 00b4 00C0      		rjmp .L23
 203               	.L12:
 204 00b6 EA81      		ldd r30,Y+2
 205 00b8 FB81      		ldd r31,Y+3
 206 00ba 9081      		ld r25,Z
 207 00bc 8E81      		ldd r24,Y+6
 208 00be 8095      		com r24
 209 00c0 8923      		and r24,r25
 210 00c2 8083      		st Z,r24
 211 00c4 1296      		adiw r26,2
 212 00c6 CD91      		ld r28,X+
 213 00c8 DC91      		ld r29,X
 214 00ca 1397      		sbiw r26,2+1
 215 00cc EA81      		ldd r30,Y+2
 216 00ce FB81      		ldd r31,Y+3
 217 00d0 8081      		ld r24,Z
 218 00d2 9E81      		ldd r25,Y+6
 219 00d4 892B      		or r24,r25
 220               	.L20:
 221 00d6 8083      		st Z,r24
 222 00d8 1496      		adiw r26,4
 223 00da CD91      		ld r28,X+
 224 00dc DC91      		ld r29,X
 225 00de 1597      		sbiw r26,4+1
 226 00e0 EA81      		ldd r30,Y+2
 227 00e2 FB81      		ldd r31,Y+3
 228 00e4 8081      		ld r24,Z
 229 00e6 9E81      		ldd r25,Y+6
 230 00e8 892B      		or r24,r25
 231 00ea 00C0      		rjmp .L21
 232               	.L13:
 233 00ec EA81      		ldd r30,Y+2
 234 00ee FB81      		ldd r31,Y+3
 235 00f0 9081      		ld r25,Z
 236 00f2 8E81      		ldd r24,Y+6
 237 00f4 8095      		com r24
 238 00f6 8923      		and r24,r25
 239 00f8 8083      		st Z,r24
GAS LISTING C:\Users\Aluno\AppData\Local\Temp\cceVHCPv.s 			page 5


 240 00fa 1296      		adiw r26,2
 241 00fc CD91      		ld r28,X+
 242 00fe DC91      		ld r29,X
 243 0100 1397      		sbiw r26,2+1
 244 0102 EA81      		ldd r30,Y+2
 245 0104 FB81      		ldd r31,Y+3
 246 0106 9081      		ld r25,Z
 247 0108 8E81      		ldd r24,Y+6
 248 010a 8095      		com r24
 249 010c 8923      		and r24,r25
 250 010e 00C0      		rjmp .L20
 251               	.L14:
 252 0110 EA81      		ldd r30,Y+2
 253 0112 FB81      		ldd r31,Y+3
 254 0114 9081      		ld r25,Z
 255 0116 8E81      		ldd r24,Y+6
 256 0118 8095      		com r24
 257 011a 8923      		and r24,r25
 258 011c 8083      		st Z,r24
 259 011e 1296      		adiw r26,2
 260 0120 CD91      		ld r28,X+
 261 0122 DC91      		ld r29,X
 262 0124 1397      		sbiw r26,2+1
 263 0126 EA81      		ldd r30,Y+2
 264 0128 FB81      		ldd r31,Y+3
 265 012a 9081      		ld r25,Z
 266 012c 8E81      		ldd r24,Y+6
 267 012e 8095      		com r24
 268 0130 8923      		and r24,r25
 269 0132 8083      		st Z,r24
 270 0134 1496      		adiw r26,4
 271 0136 CD91      		ld r28,X+
 272 0138 DC91      		ld r29,X
 273 013a 1597      		sbiw r26,4+1
 274 013c EA81      		ldd r30,Y+2
 275 013e FB81      		ldd r31,Y+3
 276 0140 8081      		ld r24,Z
 277 0142 9E81      		ldd r25,Y+6
 278 0144 892B      		or r24,r25
 279               	.L17:
 280 0146 8083      		st Z,r24
 281 0148 1696      		adiw r26,6
 282 014a 0D90      		ld __tmp_reg__,X+
 283 014c BC91      		ld r27,X
 284 014e A02D      		mov r26,__tmp_reg__
 285 0150 1296      		adiw r26,2
 286 0152 ED91      		ld r30,X+
 287 0154 FC91      		ld r31,X
 288 0156 1397      		sbiw r26,2+1
 289 0158 8081      		ld r24,Z
 290 015a 1696      		adiw r26,6
 291 015c 9C91      		ld r25,X
 292 015e 892B      		or r24,r25
 293 0160 00C0      		rjmp .L19
 294               	.L15:
 295 0162 EA81      		ldd r30,Y+2
 296 0164 FB81      		ldd r31,Y+3
GAS LISTING C:\Users\Aluno\AppData\Local\Temp\cceVHCPv.s 			page 6


 297 0166 9081      		ld r25,Z
 298 0168 8E81      		ldd r24,Y+6
 299 016a 8095      		com r24
 300 016c 8923      		and r24,r25
 301               	.L18:
 302 016e 8083      		st Z,r24
 303 0170 1296      		adiw r26,2
 304 0172 CD91      		ld r28,X+
 305 0174 DC91      		ld r29,X
 306 0176 1397      		sbiw r26,2+1
 307 0178 EA81      		ldd r30,Y+2
 308 017a FB81      		ldd r31,Y+3
 309 017c 9081      		ld r25,Z
 310 017e 8E81      		ldd r24,Y+6
 311 0180 8095      		com r24
 312 0182 8923      		and r24,r25
 313 0184 8083      		st Z,r24
 314 0186 1496      		adiw r26,4
 315 0188 CD91      		ld r28,X+
 316 018a DC91      		ld r29,X
 317 018c 1597      		sbiw r26,4+1
 318 018e EA81      		ldd r30,Y+2
 319 0190 FB81      		ldd r31,Y+3
 320 0192 9081      		ld r25,Z
 321 0194 8E81      		ldd r24,Y+6
 322 0196 8095      		com r24
 323 0198 8923      		and r24,r25
 324 019a 00C0      		rjmp .L17
 325               	.L16:
 326 019c EA81      		ldd r30,Y+2
 327 019e FB81      		ldd r31,Y+3
 328 01a0 8081      		ld r24,Z
 329 01a2 9E81      		ldd r25,Y+6
 330 01a4 892B      		or r24,r25
 331 01a6 00C0      		rjmp .L18
 333               		.section	.text._ZN7Stepper4initEPK7GpioPinS2_S2_S2_,"ax",@progbits
 334               	.global	_ZN7Stepper4initEPK7GpioPinS2_S2_S2_
 336               	_ZN7Stepper4initEPK7GpioPinS2_S2_S2_:
 337 0000 FF92      		push r15
 338 0002 0F93      		push r16
 339 0004 1F93      		push r17
 340 0006 CF93      		push r28
 341 0008 DF93      		push r29
 342               	/* prologue: function */
 343               	/* frame size = 0 */
 344               	/* stack size = 5 */
 345               	.L__stack_usage = 5
 346 000a EC01      		movw r28,r24
 347 000c 1982      		std Y+1,__zero_reg__
 348 000e 1882      		st Y,__zero_reg__
 349 0010 1B82      		std Y+3,__zero_reg__
 350 0012 1A82      		std Y+2,__zero_reg__
 351 0014 1D82      		std Y+5,__zero_reg__
 352 0016 1C82      		std Y+4,__zero_reg__
 353 0018 1F82      		std Y+7,__zero_reg__
 354 001a 1E82      		std Y+6,__zero_reg__
 355 001c 1B86      		std Y+11,__zero_reg__
GAS LISTING C:\Users\Aluno\AppData\Local\Temp\cceVHCPv.s 			page 7


 356 001e 8885      		ldd r24,Y+8
 357 0020 817F      		andi r24,lo8(-15)
 358 0022 8E7F      		andi r24,lo8(~(1<<0))
 359 0024 8887      		std Y+8,r24
 360 0026 6115      		cp r22,__zero_reg__
 361 0028 7105      		cpc r23,__zero_reg__
 362 002a 01F0      		breq .L25
 363 002c 4115      		cp r20,__zero_reg__
 364 002e 5105      		cpc r21,__zero_reg__
 365 0030 01F0      		breq .L25
 366 0032 2115      		cp r18,__zero_reg__
 367 0034 3105      		cpc r19,__zero_reg__
 368 0036 01F0      		breq .L25
 369 0038 0115      		cp r16,__zero_reg__
 370 003a 1105      		cpc r17,__zero_reg__
 371 003c 01F4      		brne .L26
 372               	.L25:
 373 003e 81E1      		ldi r24,lo8(17)
 374 0040 90E0      		ldi r25,0
 375               	.L48:
 376 0042 9A87      		std Y+10,r25
 377 0044 8987      		std Y+9,r24
 378 0046 F12C      		mov r15,__zero_reg__
 379               	.L24:
 380 0048 8F2D      		mov r24,r15
 381               	/* epilogue start */
 382 004a DF91      		pop r29
 383 004c CF91      		pop r28
 384 004e 1F91      		pop r17
 385 0050 0F91      		pop r16
 386 0052 FF90      		pop r15
 387 0054 0895      		ret
 388               	.L26:
 389 0056 FB01      		movw r30,r22
 390 0058 9085      		ldd r25,Z+8
 391 005a 90FD      		sbrc r25,0
 392 005c 00C0      		rjmp .L28
 393               	.L29:
 394 005e 8CED      		ldi r24,lo8(-36)
 395 0060 90E0      		ldi r25,0
 396 0062 00C0      		rjmp .L48
 397               	.L28:
 398 0064 FA01      		movw r30,r20
 399 0066 9085      		ldd r25,Z+8
 400 0068 90FF      		sbrs r25,0
 401 006a 00C0      		rjmp .L29
 402 006c F901      		movw r30,r18
 403 006e 9085      		ldd r25,Z+8
 404 0070 90FF      		sbrs r25,0
 405 0072 00C0      		rjmp .L29
 406 0074 F801      		movw r30,r16
 407 0076 9085      		ldd r25,Z+8
 408 0078 90FB      		bst r25,0
 409 007a FF24      		clr r15
 410 007c F0F8      		bld r15,0
 411 007e 90FF      		sbrs r25,0
 412 0080 00C0      		rjmp .L29
GAS LISTING C:\Users\Aluno\AppData\Local\Temp\cceVHCPv.s 			page 8


 413 0082 7983      		std Y+1,r23
 414 0084 6883      		st Y,r22
 415 0086 5B83      		std Y+3,r21
 416 0088 4A83      		std Y+2,r20
 417 008a 3D83      		std Y+5,r19
 418 008c 2C83      		std Y+4,r18
 419 008e 1F83      		std Y+7,r17
 420 0090 0E83      		std Y+6,r16
 421 0092 8160      		ori r24,lo8(1<<0)
 422 0094 8887      		std Y+8,r24
 423 0096 60E0      		ldi r22,0
 424 0098 CE01      		movw r24,r28
 425 009a 0E94 0000 		call _ZN7Stepper7_doStepEh
 426 009e 65E0      		ldi r22,lo8(5)
 427 00a0 8881      		ld r24,Y
 428 00a2 9981      		ldd r25,Y+1
 429 00a4 0E94 0000 		call _ZN7GpioPin7setModeENS_4ModeE
 430 00a8 65E0      		ldi r22,lo8(5)
 431 00aa 8A81      		ldd r24,Y+2
 432 00ac 9B81      		ldd r25,Y+3
 433 00ae 0E94 0000 		call _ZN7GpioPin7setModeENS_4ModeE
 434 00b2 65E0      		ldi r22,lo8(5)
 435 00b4 8C81      		ldd r24,Y+4
 436 00b6 9D81      		ldd r25,Y+5
 437 00b8 0E94 0000 		call _ZN7GpioPin7setModeENS_4ModeE
 438 00bc 65E0      		ldi r22,lo8(5)
 439 00be 8E81      		ldd r24,Y+6
 440 00c0 9F81      		ldd r25,Y+7
 441 00c2 0E94 0000 		call _ZN7GpioPin7setModeENS_4ModeE
 442 00c6 1A86      		std Y+10,__zero_reg__
 443 00c8 1986      		std Y+9,__zero_reg__
 444 00ca 00C0      		rjmp .L24
 446               		.section	.text._ZN7Stepper4moveE8Rotation,"ax",@progbits
 447               	.global	_ZN7Stepper4moveE8Rotation
 449               	_ZN7Stepper4moveE8Rotation:
 450 0000 1F93      		push r17
 451 0002 CF93      		push r28
 452 0004 DF93      		push r29
 453               	/* prologue: function */
 454               	/* frame size = 0 */
 455               	/* stack size = 3 */
 456               	.L__stack_usage = 3
 457 0006 EC01      		movw r28,r24
 458 0008 862F      		mov r24,r22
 459 000a 9885      		ldd r25,Y+8
 460 000c 192F      		mov r17,r25
 461 000e 1170      		andi r17,1
 462 0010 90FD      		sbrc r25,0
 463 0012 00C0      		rjmp .L50
 464 0014 84E0      		ldi r24,lo8(4)
 465 0016 90E0      		ldi r25,0
 466 0018 9A87      		std Y+10,r25
 467 001a 8987      		std Y+9,r24
 468               	.L49:
 469 001c 812F      		mov r24,r17
 470               	/* epilogue start */
 471 001e DF91      		pop r29
GAS LISTING C:\Users\Aluno\AppData\Local\Temp\cceVHCPv.s 			page 9


 472 0020 CF91      		pop r28
 473 0022 1F91      		pop r17
 474 0024 0895      		ret
 475               	.L50:
 476 0026 692F      		mov r22,r25
 477 0028 6695      		lsr r22
 478 002a 6770      		andi r22,lo8(7)
 479 002c 9B85      		ldd r25,Y+11
 480 002e 9230      		cpi r25,lo8(2)
 481 0030 01F4      		brne .L52
 482 0032 8111      		cpse r24,__zero_reg__
 483 0034 00C0      		rjmp .L53
 484 0036 6730      		cpi r22,lo8(7)
 485 0038 01F0      		breq .L61
 486               	.L68:
 487 003a 6F5F      		subi r22,lo8(-(1))
 488 003c 00C0      		rjmp .L54
 489               	.L53:
 490 003e 6623      		tst r22
 491 0040 01F0      		breq .L62
 492 0042 6150      		subi r22,lo8(-(-1))
 493               	.L54:
 494 0044 962F      		mov r25,r22
 495 0046 9770      		andi r25,lo8(7)
 496 0048 990F      		lsl r25
 497 004a 8885      		ldd r24,Y+8
 498 004c 817F      		andi r24,lo8(-15)
 499 004e 892B      		or r24,r25
 500 0050 8887      		std Y+8,r24
 501 0052 CE01      		movw r24,r28
 502 0054 0E94 0000 		call _ZN7Stepper7_doStepEh
 503 0058 1A86      		std Y+10,__zero_reg__
 504 005a 1986      		std Y+9,__zero_reg__
 505 005c 00C0      		rjmp .L49
 506               	.L52:
 507 005e 9111      		cpse r25,__zero_reg__
 508 0060 00C0      		rjmp .L55
 509 0062 6695      		lsr r22
 510 0064 8111      		cpse r24,__zero_reg__
 511 0066 00C0      		rjmp .L56
 512 0068 6330      		cpi r22,lo8(3)
 513 006a 01F0      		breq .L63
 514 006c 6F5F      		subi r22,lo8(-(1))
 515               	.L57:
 516 006e 660F      		lsl r22
 517 0070 00C0      		rjmp .L54
 518               	.L56:
 519 0072 6623      		tst r22
 520 0074 01F0      		breq .L64
 521 0076 6150      		subi r22,lo8(-(-1))
 522 0078 00C0      		rjmp .L57
 523               	.L63:
 524 007a 60E0      		ldi r22,0
 525 007c 00C0      		rjmp .L57
 526               	.L64:
 527 007e 63E0      		ldi r22,lo8(3)
 528 0080 00C0      		rjmp .L57
GAS LISTING C:\Users\Aluno\AppData\Local\Temp\cceVHCPv.s 			page 10


 529               	.L55:
 530 0082 9130      		cpi r25,lo8(1)
 531 0084 01F4      		brne .L54
 532 0086 6623      		tst r22
 533 0088 01F0      		breq .L65
 534 008a 6150      		subi r22,lo8(-(-1))
 535               	.L58:
 536 008c 6695      		lsr r22
 537 008e 8111      		cpse r24,__zero_reg__
 538 0090 00C0      		rjmp .L59
 539 0092 6330      		cpi r22,lo8(3)
 540 0094 01F0      		breq .L66
 541 0096 6F5F      		subi r22,lo8(-(1))
 542               	.L60:
 543 0098 660F      		lsl r22
 544 009a 00C0      		rjmp .L68
 545               	.L65:
 546 009c 67E0      		ldi r22,lo8(7)
 547 009e 00C0      		rjmp .L58
 548               	.L59:
 549 00a0 6623      		tst r22
 550 00a2 01F0      		breq .L67
 551 00a4 6150      		subi r22,lo8(-(-1))
 552 00a6 00C0      		rjmp .L60
 553               	.L66:
 554 00a8 60E0      		ldi r22,0
 555 00aa 00C0      		rjmp .L60
 556               	.L67:
 557 00ac 63E0      		ldi r22,lo8(3)
 558 00ae 00C0      		rjmp .L60
 559               	.L61:
 560 00b0 60E0      		ldi r22,0
 561 00b2 00C0      		rjmp .L54
 562               	.L62:
 563 00b4 67E0      		ldi r22,lo8(7)
 564 00b6 00C0      		rjmp .L54
 566               		.ident	"GCC: (AVR_8_bit_GNU_Toolchain_3.7.0_1796) 7.3.0"
GAS LISTING C:\Users\Aluno\AppData\Local\Temp\cceVHCPv.s 			page 11


DEFINED SYMBOLS
                            *ABS*:0000000000000000 funsapeLibStepper.cpp
C:\Users\Aluno\AppData\Local\Temp\cceVHCPv.s:2      *ABS*:000000000000003e __SP_H__
C:\Users\Aluno\AppData\Local\Temp\cceVHCPv.s:3      *ABS*:000000000000003d __SP_L__
C:\Users\Aluno\AppData\Local\Temp\cceVHCPv.s:4      *ABS*:000000000000003f __SREG__
C:\Users\Aluno\AppData\Local\Temp\cceVHCPv.s:5      *ABS*:0000000000000000 __tmp_reg__
C:\Users\Aluno\AppData\Local\Temp\cceVHCPv.s:6      *ABS*:0000000000000001 __zero_reg__
C:\Users\Aluno\AppData\Local\Temp\cceVHCPv.s:11     .text._Z7getTickv:0000000000000000 _Z7getTickv
C:\Users\Aluno\AppData\Local\Temp\cceVHCPv.s:25     .text._ZN7StepperC2Ev:0000000000000000 _ZN7StepperC2Ev
C:\Users\Aluno\AppData\Local\Temp\cceVHCPv.s:25     .text._ZN7StepperC2Ev:0000000000000000 _ZN7StepperC1Ev
C:\Users\Aluno\AppData\Local\Temp\cceVHCPv.s:54     .text._ZN7StepperD2Ev:0000000000000000 _ZN7StepperD2Ev
C:\Users\Aluno\AppData\Local\Temp\cceVHCPv.s:54     .text._ZN7StepperD2Ev:0000000000000000 _ZN7StepperD1Ev
C:\Users\Aluno\AppData\Local\Temp\cceVHCPv.s:67     .text._ZN7Stepper12getLastErrorEv:0000000000000000 _ZN7Stepper12getLastErrorEv
C:\Users\Aluno\AppData\Local\Temp\cceVHCPv.s:81     .text._ZN7Stepper7setModeENS_4ModeE:0000000000000000 _ZN7Stepper7setModeENS_4ModeE
C:\Users\Aluno\AppData\Local\Temp\cceVHCPv.s:97     .text._ZN7Stepper7_doStepEh:0000000000000000 _ZN7Stepper7_doStepEh
C:\Users\Aluno\AppData\Local\Temp\cceVHCPv.s:336    .text._ZN7Stepper4initEPK7GpioPinS2_S2_S2_:0000000000000000 _ZN7Stepper4initEPK7GpioPinS2_S2_S2_
C:\Users\Aluno\AppData\Local\Temp\cceVHCPv.s:449    .text._ZN7Stepper4moveE8Rotation:0000000000000000 _ZN7Stepper4moveE8Rotation

UNDEFINED SYMBOLS
__tablejump2__
_ZN7GpioPin7setModeENS_4ModeE
