GAS LISTING C:\Users\Docker\AppData\Local\Temp\cc9RZAvm.s 			page 1


   1               		.file	"funsapeLibSound.cpp"
   2               	__SP_H__ = 0x3e
   3               	__SP_L__ = 0x3d
   4               	__SREG__ = 0x3f
   5               	__tmp_reg__ = 0
   6               	__zero_reg__ = 1
   7               		.text
   8               		.section	.text._Z7getTickv,"ax",@progbits
   9               		.weak	_Z7getTickv
  11               	_Z7getTickv:
  12               	/* prologue: function */
  13               	/* frame size = 0 */
  14               	/* stack size = 0 */
  15               	.L__stack_usage = 0
  16 0000 60E0      		ldi r22,0
  17 0002 70E0      		ldi r23,0
  18 0004 CB01      		movw r24,r22
  19               	/* epilogue start */
  20 0006 0895      		ret
  22               		.section	.text._Z9playNotesP4Note,"ax",@progbits
  23               	.global	_Z9playNotesP4Note
  25               	_Z9playNotesP4Note:
  26 0000 EF92      		push r14
  27 0002 FF92      		push r15
  28 0004 1F93      		push r17
  29 0006 CF93      		push r28
  30 0008 DF93      		push r29
  31               	/* prologue: function */
  32               	/* frame size = 0 */
  33               	/* stack size = 5 */
  34               	.L__stack_usage = 5
  35 000a EC01      		movw r28,r24
  36 000c 10E0      		ldi r17,0
  37               	.L4:
  38 000e 7E01      		movw r14,r28
  39 0010 E10E      		add r14,r17
  40 0012 F11C      		adc r15,__zero_reg__
  41 0014 D701      		movw r26,r14
  42 0016 8C91      		ld r24,X
  43 0018 8C36      		cpi r24,lo8(108)
  44 001a 01F0      		breq .L3
  45 001c 8FB7      		in r24,__SREG__
  46               	/* #APP */
  47               	 ;  50 "c:\users\docker\desktop\micro\vscode-win\toolchains\avr-gcc\avr\include\util\atomic.h" 1
  48 001e F894      		cli
  49               	 ;  0 "" 2
  50               	/* #NOAPP */
  51 0020 1092 8500 		sts 132+1,__zero_reg__
  52 0024 1092 8400 		sts 132,__zero_reg__
  53 0028 8FBF      		out __SREG__,r24
  54 002a EC91      		ld r30,X
  55 002c F0E0      		ldi r31,0
  56 002e E050      		subi r30,lo8(-(notesPrescaler))
  57 0030 F040      		sbci r31,hi8(-(notesPrescaler))
  58 0032 6081      		ld r22,Z
  59 0034 80E0      		ldi r24,lo8(timer1)
  60 0036 90E0      		ldi r25,hi8(timer1)
GAS LISTING C:\Users\Docker\AppData\Local\Temp\cc9RZAvm.s 			page 2


  61 0038 0E94 0000 		call _ZN6Timer114setClockSourceENS_11ClockSourceE
  62 003c D701      		movw r26,r14
  63 003e EC91      		ld r30,X
  64 0040 F0E0      		ldi r31,0
  65 0042 EE0F      		lsl r30
  66 0044 FF1F      		rol r31
  67 0046 E050      		subi r30,lo8(-(_ZL13notesOcrValue))
  68 0048 F040      		sbci r31,hi8(-(_ZL13notesOcrValue))
  69 004a 2081      		ld r18,Z
  70 004c 3181      		ldd r19,Z+1
  71 004e 8FB7      		in r24,__SREG__
  72               	/* #APP */
  73               	 ;  50 "c:\users\docker\desktop\micro\vscode-win\toolchains\avr-gcc\avr\include\util\atomic.h" 1
  74 0050 F894      		cli
  75               	 ;  0 "" 2
  76               	/* #NOAPP */
  77 0052 3093 8900 		sts 136+1,r19
  78 0056 2093 8800 		sts 136,r18
  79 005a 8FBF      		out __SREG__,r24
  80 005c 1F5F      		subi r17,lo8(-(1))
  81 005e BFE7      		ldi r27,lo8(399999)
  82 0060 EAE1      		ldi r30,hi8(399999)
  83 0062 F6E0      		ldi r31,hlo8(399999)
  84 0064 B150      	1:	subi r27,1
  85 0066 E040      		sbci r30,0
  86 0068 F040      		sbci r31,0
  87 006a 01F4      		brne 1b
  88 006c 00C0      		rjmp .
  89 006e 0000      		nop
  90 0070 00C0      		rjmp .L4
  91               	.L3:
  92 0072 8FB7      		in r24,__SREG__
  93               	/* #APP */
  94               	 ;  50 "c:\users\docker\desktop\micro\vscode-win\toolchains\avr-gcc\avr\include\util\atomic.h" 1
  95 0074 F894      		cli
  96               	 ;  0 "" 2
  97               	/* #NOAPP */
  98 0076 1092 8500 		sts 132+1,__zero_reg__
  99 007a 1092 8400 		sts 132,__zero_reg__
 100 007e 8FBF      		out __SREG__,r24
 101 0080 60E0      		ldi r22,0
 102 0082 80E0      		ldi r24,lo8(timer1)
 103 0084 90E0      		ldi r25,hi8(timer1)
 104 0086 0E94 0000 		call _ZN6Timer114setClockSourceENS_11ClockSourceE
 105 008a 2998      		cbi 0x5,1
 106 008c 81E0      		ldi r24,lo8(1)
 107               	/* epilogue start */
 108 008e DF91      		pop r29
 109 0090 CF91      		pop r28
 110 0092 1F91      		pop r17
 111 0094 FF90      		pop r15
 112 0096 EF90      		pop r14
 113 0098 0895      		ret
 115               		.section	.rodata._ZL13notesOcrValue,"a",@progbits
 118               	_ZL13notesOcrValue:
 119 0000 E9EE      		.word	-4375
 120 0002 88E1      		.word	-7800
GAS LISTING C:\Users\Docker\AppData\Local\Temp\cc9RZAvm.s 			page 3


 121 0004 DFD4      		.word	-11041
 122 0006 D5C8      		.word	-14123
 123 0008 9FBD      		.word	-16993
 124 000a F0B2      		.word	-19728
 125 000c F4A8      		.word	-22284
 126 000e 6F9F      		.word	-24721
 127 0010 7896      		.word	-27016
 128 0012 0B8E      		.word	-29173
 129 0014 0C86      		.word	-31220
 130 0016 897E      		.word	32393
 131 0018 7477      		.word	30580
 132 001a BB70      		.word	28859
 133 001c 686A      		.word	27240
 134 001e 7164      		.word	25713
 135 0020 CF5E      		.word	24271
 136 0022 7D59      		.word	22909
 137 0024 7554      		.word	21621
 138 0026 B74F      		.word	20407
 139 0028 3F4B      		.word	19263
 140 002a 0547      		.word	18181
 141 002c 0843      		.word	17160
 142 002e 443F      		.word	16196
 143 0030 B73B      		.word	15287
 144 0032 5D38      		.word	14429
 145 0034 3335      		.word	13619
 146 0036 3832      		.word	12856
 147 0038 652F      		.word	12133
 148 003a BC2C      		.word	11452
 149 003c 3A2A      		.word	10810
 150 003e DB27      		.word	10203
 151 0040 9E25      		.word	9630
 152 0042 8223      		.word	9090
 153 0044 8421      		.word	8580
 154 0046 18FD      		.word	-744
 155 0048 E4EE      		.word	-4380
 156 004a 7BE1      		.word	-7813
 157 004c D4D4      		.word	-11052
 158 004e E2C8      		.word	-14110
 159 0050 9CBD      		.word	-16996
 160 0052 F7B2      		.word	-19721
 161 0054 EAA8      		.word	-22294
 162 0056 6F9F      		.word	-24721
 163 0058 7D96      		.word	-27011
 164 005a 0B8E      		.word	-29173
 165 005c 1286      		.word	-31214
 166 005e 8C7E      		.word	32396
 167 0060 7177      		.word	30577
 168 0062 BD70      		.word	28861
 169 0064 696A      		.word	27241
 170 0066 7064      		.word	25712
 171 0068 CD5E      		.word	24269
 172 006a 7B59      		.word	22907
 173 006c 7554      		.word	21621
 174 006e B74F      		.word	20407
 175 0070 3E4B      		.word	19262
 176 0072 0547      		.word	18181
 177 0074 0843      		.word	17160
GAS LISTING C:\Users\Docker\AppData\Local\Temp\cc9RZAvm.s 			page 4


 178 0076 453F      		.word	16197
 179 0078 B83B      		.word	15288
 180 007a 5E38      		.word	14430
 181 007c 3435      		.word	13620
 182 007e 3832      		.word	12856
 183 0080 662F      		.word	12134
 184 0082 BD2C      		.word	11453
 185 0084 3A2A      		.word	10810
 186 0086 DB27      		.word	10203
 187 0088 9E25      		.word	9630
 188 008a 8223      		.word	9090
 189 008c 8421      		.word	8580
 190 008e A21F      		.word	8098
 191 0090 DC1D      		.word	7644
 192 0092 2E1C      		.word	7214
 193 0094 991A      		.word	6809
 194 0096 1B19      		.word	6427
 195 0098 B217      		.word	6066
 196 009a 5E16      		.word	5726
 197 009c 1C15      		.word	5404
 198 009e ED13      		.word	5101
 199 00a0 CF12      		.word	4815
 200 00a2 C011      		.word	4544
 201 00a4 C110      		.word	4289
 202 00a6 D10F      		.word	4049
 203 00a8 ED0E      		.word	3821
 204 00aa 170E      		.word	3607
 205 00ac 4C0D      		.word	3404
 206 00ae 8D0C      		.word	3213
 207 00b0 D90B      		.word	3033
 208 00b2 2E0B      		.word	2862
 209 00b4 8E0A      		.word	2702
 210 00b6 F609      		.word	2550
 211 00b8 6709      		.word	2407
 212 00ba E008      		.word	2272
 213 00bc 6008      		.word	2144
 214 00be E807      		.word	2024
 215 00c0 7607      		.word	1910
 216 00c2 0B07      		.word	1803
 217 00c4 A606      		.word	1702
 218 00c6 4606      		.word	1606
 219 00c8 EC05      		.word	1516
 220 00ca 9705      		.word	1431
 221 00cc 4605      		.word	1350
 222 00ce FB04      		.word	1275
 223 00d0 B304      		.word	1203
 224 00d2 6F04      		.word	1135
 225 00d4 3004      		.word	1072
 226 00d6 F303      		.word	1011
 227               	.global	notesPrescaler
 228               		.section	.data.notesPrescaler,"aw",@progbits
 231               	notesPrescaler:
 232 0000 02        		.byte	2
 233 0001 02        		.byte	2
 234 0002 02        		.byte	2
 235 0003 02        		.byte	2
 236 0004 02        		.byte	2
GAS LISTING C:\Users\Docker\AppData\Local\Temp\cc9RZAvm.s 			page 5


 237 0005 02        		.byte	2
 238 0006 02        		.byte	2
 239 0007 02        		.byte	2
 240 0008 02        		.byte	2
 241 0009 02        		.byte	2
 242 000a 02        		.byte	2
 243 000b 02        		.byte	2
 244 000c 02        		.byte	2
 245 000d 02        		.byte	2
 246 000e 02        		.byte	2
 247 000f 02        		.byte	2
 248 0010 02        		.byte	2
 249 0011 02        		.byte	2
 250 0012 02        		.byte	2
 251 0013 02        		.byte	2
 252 0014 02        		.byte	2
 253 0015 02        		.byte	2
 254 0016 02        		.byte	2
 255 0017 02        		.byte	2
 256 0018 02        		.byte	2
 257 0019 02        		.byte	2
 258 001a 02        		.byte	2
 259 001b 02        		.byte	2
 260 001c 02        		.byte	2
 261 001d 02        		.byte	2
 262 001e 02        		.byte	2
 263 001f 02        		.byte	2
 264 0020 02        		.byte	2
 265 0021 02        		.byte	2
 266 0022 02        		.byte	2
 267 0023 01        		.byte	1
 268 0024 01        		.byte	1
 269 0025 01        		.byte	1
 270 0026 01        		.byte	1
 271 0027 01        		.byte	1
 272 0028 01        		.byte	1
 273 0029 01        		.byte	1
 274 002a 01        		.byte	1
 275 002b 01        		.byte	1
 276 002c 01        		.byte	1
 277 002d 01        		.byte	1
 278 002e 01        		.byte	1
 279 002f 01        		.byte	1
 280 0030 01        		.byte	1
 281 0031 01        		.byte	1
 282 0032 01        		.byte	1
 283 0033 01        		.byte	1
 284 0034 01        		.byte	1
 285 0035 01        		.byte	1
 286 0036 01        		.byte	1
 287 0037 01        		.byte	1
 288 0038 01        		.byte	1
 289 0039 01        		.byte	1
 290 003a 01        		.byte	1
 291 003b 01        		.byte	1
 292 003c 01        		.byte	1
 293 003d 01        		.byte	1
GAS LISTING C:\Users\Docker\AppData\Local\Temp\cc9RZAvm.s 			page 6


 294 003e 01        		.byte	1
 295 003f 01        		.byte	1
 296 0040 01        		.byte	1
 297 0041 01        		.byte	1
 298 0042 01        		.byte	1
 299 0043 01        		.byte	1
 300 0044 01        		.byte	1
 301 0045 01        		.byte	1
 302 0046 01        		.byte	1
 303 0047 01        		.byte	1
 304 0048 01        		.byte	1
 305 0049 01        		.byte	1
 306 004a 01        		.byte	1
 307 004b 01        		.byte	1
 308 004c 01        		.byte	1
 309 004d 01        		.byte	1
 310 004e 01        		.byte	1
 311 004f 01        		.byte	1
 312 0050 01        		.byte	1
 313 0051 01        		.byte	1
 314 0052 01        		.byte	1
 315 0053 01        		.byte	1
 316 0054 01        		.byte	1
 317 0055 01        		.byte	1
 318 0056 01        		.byte	1
 319 0057 01        		.byte	1
 320 0058 01        		.byte	1
 321 0059 01        		.byte	1
 322 005a 01        		.byte	1
 323 005b 01        		.byte	1
 324 005c 01        		.byte	1
 325 005d 01        		.byte	1
 326 005e 01        		.byte	1
 327 005f 01        		.byte	1
 328 0060 01        		.byte	1
 329 0061 01        		.byte	1
 330 0062 01        		.byte	1
 331 0063 01        		.byte	1
 332 0064 01        		.byte	1
 333 0065 01        		.byte	1
 334 0066 01        		.byte	1
 335 0067 01        		.byte	1
 336 0068 01        		.byte	1
 337 0069 01        		.byte	1
 338 006a 01        		.byte	1
 339 006b 01        		.byte	1
 340               		.ident	"GCC: (AVR_8_bit_GNU_Toolchain_3.7.0_1796) 7.3.0"
 341               	.global __do_copy_data
GAS LISTING C:\Users\Docker\AppData\Local\Temp\cc9RZAvm.s 			page 7


DEFINED SYMBOLS
                            *ABS*:0000000000000000 funsapeLibSound.cpp
C:\Users\Docker\AppData\Local\Temp\cc9RZAvm.s:2      *ABS*:000000000000003e __SP_H__
C:\Users\Docker\AppData\Local\Temp\cc9RZAvm.s:3      *ABS*:000000000000003d __SP_L__
C:\Users\Docker\AppData\Local\Temp\cc9RZAvm.s:4      *ABS*:000000000000003f __SREG__
C:\Users\Docker\AppData\Local\Temp\cc9RZAvm.s:5      *ABS*:0000000000000000 __tmp_reg__
C:\Users\Docker\AppData\Local\Temp\cc9RZAvm.s:6      *ABS*:0000000000000001 __zero_reg__
C:\Users\Docker\AppData\Local\Temp\cc9RZAvm.s:11     .text._Z7getTickv:0000000000000000 _Z7getTickv
C:\Users\Docker\AppData\Local\Temp\cc9RZAvm.s:25     .text._Z9playNotesP4Note:0000000000000000 _Z9playNotesP4Note
C:\Users\Docker\AppData\Local\Temp\cc9RZAvm.s:231    .data.notesPrescaler:0000000000000000 notesPrescaler
C:\Users\Docker\AppData\Local\Temp\cc9RZAvm.s:118    .rodata._ZL13notesOcrValue:0000000000000000 _ZL13notesOcrValue

UNDEFINED SYMBOLS
timer1
_ZN6Timer114setClockSourceENS_11ClockSourceE
__do_copy_data
