GAS LISTING C:\Users\Aluno\AppData\Local\Temp\ccdHqSBZ.s 			page 1


   1               		.file	"funsapeLibKeypad.cpp"
   2               	__SP_H__ = 0x3e
   3               	__SP_L__ = 0x3d
   4               	__SREG__ = 0x3f
   5               	__tmp_reg__ = 0
   6               	__zero_reg__ = 1
   7               		.text
   8               		.section	.text._Z7getTickv,"ax",@progbits
   9               		.weak	_Z7getTickv
  11               	_Z7getTickv:
  12               	/* prologue: function */
  13               	/* frame size = 0 */
  14               	/* stack size = 0 */
  15               	.L__stack_usage = 0
  16 0000 60E0      		ldi r22,0
  17 0002 70E0      		ldi r23,0
  18 0004 CB01      		movw r24,r22
  19               	/* epilogue start */
  20 0006 0895      		ret
  22               		.section	.text._ZN6KeypadC2Ev,"ax",@progbits
  23               	.global	_ZN6KeypadC2Ev
  25               	_ZN6KeypadC2Ev:
  26               	/* prologue: function */
  27               	/* frame size = 0 */
  28               	/* stack size = 0 */
  29               	.L__stack_usage = 0
  30 0000 FC01      		movw r30,r24
  31 0002 1182      		std Z+1,__zero_reg__
  32 0004 1082      		st Z,__zero_reg__
  33 0006 1382      		std Z+3,__zero_reg__
  34 0008 1282      		std Z+2,__zero_reg__
  35 000a 1782      		std Z+7,__zero_reg__
  36 000c 8085      		ldd r24,Z+8
  37 000e 807C      		andi r24,lo8(-64)
  38 0010 8087      		std Z+8,r24
  39 0012 8481      		ldd r24,Z+4
  40 0014 8C7F      		andi r24,lo8(-4)
  41 0016 8B7F      		andi r24,lo8(~(1<<2))
  42 0018 8483      		std Z+4,r24
  43 001a 8385      		ldd r24,Z+11
  44 001c 8078      		andi r24,lo8(-128)
  45 001e 8160      		ori r24,lo8(1)
  46 0020 8387      		std Z+11,r24
  47 0022 1286      		std Z+10,__zero_reg__
  48 0024 1186      		std Z+9,__zero_reg__
  49 0026 1682      		std Z+6,__zero_reg__
  50 0028 1582      		std Z+5,__zero_reg__
  51               	/* epilogue start */
  52 002a 0895      		ret
  54               	.global	_ZN6KeypadC1Ev
  55               		.set	_ZN6KeypadC1Ev,_ZN6KeypadC2Ev
  56               		.section	.text._ZN6KeypadD2Ev,"ax",@progbits
  57               	.global	_ZN6KeypadD2Ev
  59               	_ZN6KeypadD2Ev:
  60               	/* prologue: function */
  61               	/* frame size = 0 */
  62               	/* stack size = 0 */
GAS LISTING C:\Users\Aluno\AppData\Local\Temp\ccdHqSBZ.s 			page 2


  63               	.L__stack_usage = 0
  64 0000 FC01      		movw r30,r24
  65 0002 8185      		ldd r24,Z+9
  66 0004 9285      		ldd r25,Z+10
  67 0006 0097      		sbiw r24,0
  68 0008 01F0      		breq .L3
  69 000a 0C94 0000 		jmp free
  70               	.L3:
  71               	/* epilogue start */
  72 000e 0895      		ret
  74               	.global	_ZN6KeypadD1Ev
  75               		.set	_ZN6KeypadD1Ev,_ZN6KeypadD2Ev
  76               		.section	.text._ZN6Keypad4initEh,"ax",@progbits
  77               	.global	_ZN6Keypad4initEh
  79               	_ZN6Keypad4initEh:
  80 0000 0F93      		push r16
  81 0002 1F93      		push r17
  82 0004 CF93      		push r28
  83 0006 DF93      		push r29
  84               	/* prologue: function */
  85               	/* frame size = 0 */
  86               	/* stack size = 4 */
  87               	.L__stack_usage = 4
  88 0008 EC01      		movw r28,r24
  89 000a 8C81      		ldd r24,Y+4
  90 000c 182F      		mov r17,r24
  91 000e 1170      		andi r17,1
  92 0010 80FD      		sbrc r24,0
  93 0012 00C0      		rjmp .L6
  94 0014 80ED      		ldi r24,lo8(-48)
  95 0016 90E0      		ldi r25,0
  96               	.L12:
  97 0018 9E83      		std Y+6,r25
  98 001a 8D83      		std Y+5,r24
  99               	.L5:
 100 001c 812F      		mov r24,r17
 101               	/* epilogue start */
 102 001e DF91      		pop r29
 103 0020 CF91      		pop r28
 104 0022 1F91      		pop r17
 105 0024 0F91      		pop r16
 106 0026 0895      		ret
 107               	.L6:
 108 0028 81FB      		bst r24,1
 109 002a 1127      		clr r17
 110 002c 10F9      		bld r17,0
 111 002e 81FD      		sbrc r24,1
 112 0030 00C0      		rjmp .L8
 113 0032 8EEF      		ldi r24,lo8(-2)
 114 0034 9FEF      		ldi r25,lo8(-1)
 115 0036 00C0      		rjmp .L12
 116               	.L8:
 117 0038 062F      		mov r16,r22
 118 003a 8881      		ld r24,Y
 119 003c 9981      		ldd r25,Y+1
 120 003e 0E94 0000 		call _ZN7GpioBus10getBusSizeEv
 121 0042 2885      		ldd r18,Y+8
GAS LISTING C:\Users\Aluno\AppData\Local\Temp\ccdHqSBZ.s 			page 3


 122 0044 2695      		lsr r18
 123 0046 2695      		lsr r18
 124 0048 2695      		lsr r18
 125 004a 2770      		andi r18,lo8(7)
 126 004c 30E0      		ldi r19,0
 127 004e 2F5F      		subi r18,-1
 128 0050 3F4F      		sbci r19,-1
 129 0052 8217      		cp r24,r18
 130 0054 1306      		cpc __zero_reg__,r19
 131 0056 01F0      		breq .L9
 132               	.L10:
 133 0058 8BED      		ldi r24,lo8(-37)
 134 005a 90E0      		ldi r25,0
 135 005c 9E83      		std Y+6,r25
 136 005e 8D83      		std Y+5,r24
 137 0060 10E0      		ldi r17,0
 138 0062 00C0      		rjmp .L5
 139               	.L9:
 140 0064 8A81      		ldd r24,Y+2
 141 0066 9B81      		ldd r25,Y+3
 142 0068 0E94 0000 		call _ZN7GpioBus10getBusSizeEv
 143 006c 2885      		ldd r18,Y+8
 144 006e 2770      		andi r18,lo8(7)
 145 0070 30E0      		ldi r19,0
 146 0072 2F5F      		subi r18,-1
 147 0074 3F4F      		sbci r19,-1
 148 0076 8217      		cp r24,r18
 149 0078 1306      		cpc __zero_reg__,r19
 150 007a 01F4      		brne .L10
 151 007c 63E0      		ldi r22,lo8(3)
 152 007e 8881      		ld r24,Y
 153 0080 9981      		ldd r25,Y+1
 154 0082 0E94 0000 		call _ZN7GpioBus7setModeENS_4ModeE
 155 0086 AA81      		ldd r26,Y+2
 156 0088 BB81      		ldd r27,Y+3
 157 008a 1296      		adiw r26,2
 158 008c ED91      		ld r30,X+
 159 008e FC91      		ld r31,X
 160 0090 1397      		sbiw r26,2+1
 161 0092 8081      		ld r24,Z
 162 0094 1696      		adiw r26,6
 163 0096 9C91      		ld r25,X
 164 0098 892B      		or r24,r25
 165 009a 8083      		st Z,r24
 166 009c 65E0      		ldi r22,lo8(5)
 167 009e 8A81      		ldd r24,Y+2
 168 00a0 9B81      		ldd r25,Y+3
 169 00a2 0E94 0000 		call _ZN7GpioBus7setModeENS_4ModeE
 170 00a6 91E0      		ldi r25,lo8(1)
 171 00a8 0111      		cpse r16,__zero_reg__
 172 00aa 00C0      		rjmp .L11
 173 00ac 90E0      		ldi r25,0
 174               	.L11:
 175 00ae 8B85      		ldd r24,Y+11
 176 00b0 8078      		andi r24,lo8(-128)
 177 00b2 892B      		or r24,r25
 178 00b4 8B87      		std Y+11,r24
GAS LISTING C:\Users\Aluno\AppData\Local\Temp\ccdHqSBZ.s 			page 4


 179 00b6 8C81      		ldd r24,Y+4
 180 00b8 8460      		ori r24,lo8(1<<2)
 181 00ba 8C83      		std Y+4,r24
 182 00bc 1E82      		std Y+6,__zero_reg__
 183 00be 1D82      		std Y+5,__zero_reg__
 184 00c0 00C0      		rjmp .L5
 186               		.section	.text._ZN6Keypad8setPortsEPK7GpioBusS2_,"ax",@progbits
 187               	.global	_ZN6Keypad8setPortsEPK7GpioBusS2_
 189               	_ZN6Keypad8setPortsEPK7GpioBusS2_:
 190               	/* prologue: function */
 191               	/* frame size = 0 */
 192               	/* stack size = 0 */
 193               	.L__stack_usage = 0
 194 0000 FC01      		movw r30,r24
 195 0002 1182      		std Z+1,__zero_reg__
 196 0004 1082      		st Z,__zero_reg__
 197 0006 1382      		std Z+3,__zero_reg__
 198 0008 1282      		std Z+2,__zero_reg__
 199 000a 9481      		ldd r25,Z+4
 200 000c 9E7F      		andi r25,lo8(~(1<<0))
 201 000e 9483      		std Z+4,r25
 202 0010 6115      		cp r22,__zero_reg__
 203 0012 7105      		cpc r23,__zero_reg__
 204 0014 01F4      		brne .L14
 205               	.L16:
 206 0016 83ED      		ldi r24,lo8(-45)
 207 0018 90E0      		ldi r25,0
 208               	.L25:
 209 001a 9683      		std Z+6,r25
 210 001c 8583      		std Z+5,r24
 211 001e 80E0      		ldi r24,0
 212 0020 0895      		ret
 213               	.L14:
 214 0022 4115      		cp r20,__zero_reg__
 215 0024 5105      		cpc r21,__zero_reg__
 216 0026 01F0      		breq .L16
 217 0028 DB01      		movw r26,r22
 218 002a 1796      		adiw r26,7
 219 002c 8C91      		ld r24,X
 220 002e 80FD      		sbrc r24,0
 221 0030 00C0      		rjmp .L17
 222               	.L18:
 223 0032 8CED      		ldi r24,lo8(-36)
 224 0034 90E0      		ldi r25,0
 225 0036 00C0      		rjmp .L25
 226               	.L17:
 227 0038 DA01      		movw r26,r20
 228 003a 1796      		adiw r26,7
 229 003c 2C91      		ld r18,X
 230 003e 822F      		mov r24,r18
 231 0040 8170      		andi r24,1
 232 0042 20FF      		sbrs r18,0
 233 0044 00C0      		rjmp .L18
 234 0046 7183      		std Z+1,r23
 235 0048 6083      		st Z,r22
 236 004a 5383      		std Z+3,r21
 237 004c 4283      		std Z+2,r20
GAS LISTING C:\Users\Aluno\AppData\Local\Temp\ccdHqSBZ.s 			page 5


 238 004e 9160      		ori r25,lo8(1<<0)
 239 0050 9483      		std Z+4,r25
 240 0052 1682      		std Z+6,__zero_reg__
 241 0054 1582      		std Z+5,__zero_reg__
 242               	/* epilogue start */
 243 0056 0895      		ret
 245               		.section	.text._ZN6Keypad12setKeyValuesENS_4TypeEz,"ax",@progbits
 246               	.global	_ZN6Keypad12setKeyValuesENS_4TypeEz
 248               	_ZN6Keypad12setKeyValuesENS_4TypeEz:
 249 0000 CF92      		push r12
 250 0002 DF92      		push r13
 251 0004 FF92      		push r15
 252 0006 0F93      		push r16
 253 0008 1F93      		push r17
 254 000a CF93      		push r28
 255 000c DF93      		push r29
 256 000e CDB7      		in r28,__SP_L__
 257 0010 DEB7      		in r29,__SP_H__
 258               	/* prologue: function */
 259               	/* frame size = 0 */
 260               	/* stack size = 7 */
 261               	.L__stack_usage = 7
 262 0012 0A85      		ldd r16,Y+10
 263 0014 1B85      		ldd r17,Y+11
 264 0016 F801      		movw r30,r16
 265 0018 8481      		ldd r24,Z+4
 266 001a 8D7F      		andi r24,lo8(~(1<<1))
 267 001c 8483      		std Z+4,r24
 268 001e 8185      		ldd r24,Z+9
 269 0020 9285      		ldd r25,Z+10
 270 0022 0097      		sbiw r24,0
 271 0024 01F0      		breq .L27
 272 0026 0E94 0000 		call free
 273               	.L27:
 274 002a F801      		movw r30,r16
 275 002c 1286      		std Z+10,__zero_reg__
 276 002e 1186      		std Z+9,__zero_reg__
 277 0030 FC85      		ldd r31,Y+12
 278 0032 F130      		cpi r31,lo8(1)
 279 0034 01F0      		breq .L29
 280 0036 00F0      		brlo .L30
 281 0038 F230      		cpi r31,lo8(2)
 282 003a 01F0      		breq .L31
 283 003c 8DEF      		ldi r24,lo8(-3)
 284 003e 9FEF      		ldi r25,lo8(-1)
 285 0040 F801      		movw r30,r16
 286               	.L44:
 287 0042 9683      		std Z+6,r25
 288 0044 8583      		std Z+5,r24
 289 0046 80E0      		ldi r24,0
 290               	.L26:
 291               	/* epilogue start */
 292 0048 DF91      		pop r29
 293 004a CF91      		pop r28
 294 004c 1F91      		pop r17
 295 004e 0F91      		pop r16
 296 0050 FF90      		pop r15
GAS LISTING C:\Users\Aluno\AppData\Local\Temp\ccdHqSBZ.s 			page 6


 297 0052 DF90      		pop r13
 298 0054 CF90      		pop r12
 299 0056 0895      		ret
 300               	.L30:
 301 0058 F801      		movw r30,r16
 302 005a 8085      		ldd r24,Z+8
 303 005c 807C      		andi r24,lo8(-64)
 304 005e 8B61      		ori r24,lo8(27)
 305               	.L43:
 306 0060 8087      		std Z+8,r24
 307 0062 8C85      		ldd r24,Y+12
 308 0064 F801      		movw r30,r16
 309 0066 8783      		std Z+7,r24
 310 0068 8085      		ldd r24,Z+8
 311 006a 282F      		mov r18,r24
 312 006c 2695      		lsr r18
 313 006e 2695      		lsr r18
 314 0070 2695      		lsr r18
 315 0072 2770      		andi r18,lo8(7)
 316 0074 30E0      		ldi r19,0
 317 0076 2F5F      		subi r18,-1
 318 0078 3F4F      		sbci r19,-1
 319 007a 8770      		andi r24,lo8(7)
 320 007c 90E0      		ldi r25,0
 321 007e 0196      		adiw r24,1
 322 0080 289F      		mul r18,r24
 323 0082 B001      		movw r22,r0
 324 0084 299F      		mul r18,r25
 325 0086 700D      		add r23,r0
 326 0088 389F      		mul r19,r24
 327 008a 700D      		add r23,r0
 328 008c 1124      		clr r1
 329 008e 90E0      		ldi r25,0
 330 0090 80E0      		ldi r24,0
 331 0092 0E94 0000 		call realloc
 332 0096 F801      		movw r30,r16
 333 0098 9287      		std Z+10,r25
 334 009a 8187      		std Z+9,r24
 335 009c DE01      		movw r26,r28
 336 009e 1D96      		adiw r26,13
 337 00a0 50E0      		ldi r21,0
 338 00a2 892B      		or r24,r25
 339 00a4 01F4      		brne .L38
 340 00a6 8BE0      		ldi r24,lo8(11)
 341 00a8 90E0      		ldi r25,0
 342 00aa 00C0      		rjmp .L44
 343               	.L29:
 344 00ac F801      		movw r30,r16
 345 00ae 8085      		ldd r24,Z+8
 346 00b0 807C      		andi r24,lo8(-64)
 347 00b2 8A61      		ori r24,lo8(26)
 348 00b4 00C0      		rjmp .L43
 349               	.L31:
 350 00b6 F801      		movw r30,r16
 351 00b8 8085      		ldd r24,Z+8
 352 00ba 807C      		andi r24,lo8(-64)
 353 00bc 8262      		ori r24,lo8(34)
GAS LISTING C:\Users\Aluno\AppData\Local\Temp\ccdHqSBZ.s 			page 7


 354 00be 00C0      		rjmp .L43
 355               	.L36:
 356 00c0 5F5F      		subi r21,lo8(-(1))
 357               	.L38:
 358 00c2 252F      		mov r18,r21
 359 00c4 30E0      		ldi r19,0
 360 00c6 F801      		movw r30,r16
 361 00c8 8085      		ldd r24,Z+8
 362 00ca 8695      		lsr r24
 363 00cc 8695      		lsr r24
 364 00ce 8695      		lsr r24
 365 00d0 8770      		andi r24,lo8(7)
 366 00d2 8217      		cp r24,r18
 367 00d4 1306      		cpc __zero_reg__,r19
 368 00d6 04F0      		brlt .L35
 369 00d8 F12C      		mov r15,__zero_reg__
 370               	.L37:
 371 00da 6F2D      		mov r22,r15
 372 00dc 70E0      		ldi r23,0
 373 00de F801      		movw r30,r16
 374 00e0 4085      		ldd r20,Z+8
 375 00e2 842F      		mov r24,r20
 376 00e4 8695      		lsr r24
 377 00e6 8695      		lsr r24
 378 00e8 8695      		lsr r24
 379 00ea 8770      		andi r24,lo8(7)
 380 00ec 90E0      		ldi r25,0
 381 00ee 4770      		andi r20,lo8(7)
 382 00f0 4617      		cp r20,r22
 383 00f2 1706      		cpc __zero_reg__,r23
 384 00f4 04F0      		brlt .L36
 385 00f6 0196      		adiw r24,1
 386 00f8 829F      		mul r24,r18
 387 00fa 6001      		movw r12,r0
 388 00fc 839F      		mul r24,r19
 389 00fe D00C      		add r13,r0
 390 0100 929F      		mul r25,r18
 391 0102 D00C      		add r13,r0
 392 0104 1124      		clr r1
 393 0106 8185      		ldd r24,Z+9
 394 0108 9285      		ldd r25,Z+10
 395 010a FC01      		movw r30,r24
 396 010c E60F      		add r30,r22
 397 010e F71F      		adc r31,r23
 398 0110 EC0D      		add r30,r12
 399 0112 FD1D      		adc r31,r13
 400 0114 8C91      		ld r24,X
 401 0116 8083      		st Z,r24
 402 0118 F394      		inc r15
 403 011a 1296      		adiw r26,2
 404 011c 00C0      		rjmp .L37
 405               	.L35:
 406 011e 8481      		ldd r24,Z+4
 407 0120 8260      		ori r24,lo8(1<<1)
 408 0122 8483      		std Z+4,r24
 409 0124 1682      		std Z+6,__zero_reg__
 410 0126 1582      		std Z+5,__zero_reg__
GAS LISTING C:\Users\Aluno\AppData\Local\Temp\ccdHqSBZ.s 			page 8


 411 0128 81E0      		ldi r24,lo8(1)
 412 012a 00C0      		rjmp .L26
 414               		.section	.text._ZN6Keypad14readKeyPressedEPh,"ax",@progbits
 415               	.global	_ZN6Keypad14readKeyPressedEPh
 417               	_ZN6Keypad14readKeyPressedEPh:
 418 0000 6F92      		push r6
 419 0002 7F92      		push r7
 420 0004 9F92      		push r9
 421 0006 AF92      		push r10
 422 0008 BF92      		push r11
 423 000a CF92      		push r12
 424 000c DF92      		push r13
 425 000e EF92      		push r14
 426 0010 FF92      		push r15
 427 0012 0F93      		push r16
 428 0014 1F93      		push r17
 429 0016 CF93      		push r28
 430 0018 DF93      		push r29
 431               	/* prologue: function */
 432               	/* frame size = 0 */
 433               	/* stack size = 13 */
 434               	.L__stack_usage = 13
 435 001a FC01      		movw r30,r24
 436 001c 9481      		ldd r25,Z+4
 437 001e 92FB      		bst r25,2
 438 0020 8827      		clr r24
 439 0022 80F9      		bld r24,0
 440 0024 92FD      		sbrc r25,2
 441 0026 00C0      		rjmp .L46
 442 0028 24E0      		ldi r18,lo8(4)
 443 002a 30E0      		ldi r19,0
 444 002c 3683      		std Z+6,r19
 445 002e 2583      		std Z+5,r18
 446               	.L45:
 447               	/* epilogue start */
 448 0030 DF91      		pop r29
 449 0032 CF91      		pop r28
 450 0034 1F91      		pop r17
 451 0036 0F91      		pop r16
 452 0038 FF90      		pop r15
 453 003a EF90      		pop r14
 454 003c DF90      		pop r13
 455 003e CF90      		pop r12
 456 0040 BF90      		pop r11
 457 0042 AF90      		pop r10
 458 0044 9F90      		pop r9
 459 0046 7F90      		pop r7
 460 0048 6F90      		pop r6
 461 004a 0895      		ret
 462               	.L46:
 463 004c 6115      		cp r22,__zero_reg__
 464 004e 7105      		cpc r23,__zero_reg__
 465 0050 01F4      		brne .L55
 466 0052 81E1      		ldi r24,lo8(17)
 467 0054 90E0      		ldi r25,0
 468 0056 9683      		std Z+6,r25
 469 0058 8583      		std Z+5,r24
GAS LISTING C:\Users\Aluno\AppData\Local\Temp\ccdHqSBZ.s 			page 9


 470 005a 80E0      		ldi r24,0
 471 005c 00C0      		rjmp .L45
 472               	.L55:
 473 005e B0E0      		ldi r27,0
 474 0060 A0E0      		ldi r26,0
 475 0062 9FEF      		ldi r25,lo8(-1)
 476 0064 6624      		clr r6
 477 0066 6394      		inc r6
 478 0068 712C      		mov r7,__zero_reg__
 479               	.L48:
 480 006a 2085      		ldd r18,Z+8
 481 006c 2770      		andi r18,lo8(7)
 482 006e 2A17      		cp r18,r26
 483 0070 00F4      		brsh .+2
 484 0072 00C0      		rjmp .L49
 485 0074 4281      		ldd r20,Z+2
 486 0076 5381      		ldd r21,Z+3
 487 0078 EA01      		movw r28,r20
 488 007a 0A81      		ldd r16,Y+2
 489 007c 1B81      		ldd r17,Y+3
 490 007e E801      		movw r28,r16
 491 0080 F880      		ld r15,Y
 492 0082 EA01      		movw r28,r20
 493 0084 4B85      		ldd r20,Y+11
 494 0086 4A0F      		add r20,r26
 495 0088 5B2F      		mov r21,r27
 496 008a 511D      		adc r21,__zero_reg__
 497 008c 9301      		movw r18,r6
 498 008e 00C0      		rjmp 2f
 499               		1:
 500 0090 220F      		lsl r18
 501               		2:
 502 0092 4A95      		dec r20
 503 0094 02F4      		brpl 1b
 504 0096 2095      		com r18
 505 0098 2F21      		and r18,r15
 506 009a E801      		movw r28,r16
 507 009c 2883      		st Y,r18
 508 009e 00C0      		rjmp .
 509 00a0 00C0      		rjmp .
 510 00a2 0000      		nop
 511 00a4 4081      		ld r20,Z
 512 00a6 5181      		ldd r21,Z+1
 513 00a8 EA01      		movw r28,r20
 514 00aa 2C81      		ldd r18,Y+4
 515 00ac 3D81      		ldd r19,Y+5
 516 00ae E901      		movw r28,r18
 517 00b0 2881      		ld r18,Y
 518 00b2 EA01      		movw r28,r20
 519 00b4 3E81      		ldd r19,Y+6
 520 00b6 2323      		and r18,r19
 521 00b8 30E0      		ldi r19,0
 522 00ba 4B85      		ldd r20,Y+11
 523 00bc 00C0      		rjmp 2f
 524               		1:
 525 00be 3595      		asr r19
 526 00c0 2795      		ror r18
GAS LISTING C:\Users\Aluno\AppData\Local\Temp\ccdHqSBZ.s 			page 10


 527               		2:
 528 00c2 4A95      		dec r20
 529 00c4 02F4      		brpl 1b
 530 00c6 50E0      		ldi r21,0
 531 00c8 40E0      		ldi r20,0
 532               	.L54:
 533 00ca 1085      		ldd r17,Z+8
 534 00cc 1695      		lsr r17
 535 00ce 1695      		lsr r17
 536 00d0 1695      		lsr r17
 537 00d2 1770      		andi r17,lo8(7)
 538 00d4 1417      		cp r17,r20
 539 00d6 00F4      		brsh .+2
 540 00d8 00C0      		rjmp .L50
 541 00da 30E0      		ldi r19,0
 542 00dc 042E      		mov r0,r20
 543 00de 00C0      		rjmp 2f
 544               		1:
 545 00e0 3595      		asr r19
 546 00e2 2795      		ror r18
 547               		2:
 548 00e4 0A94      		dec r0
 549 00e6 02F4      		brpl 1b
 550 00e8 20FD      		sbrc r18,0
 551 00ea 00C0      		rjmp .L51
 552 00ec 212F      		mov r18,r17
 553 00ee 30E0      		ldi r19,0
 554 00f0 2F5F      		subi r18,-1
 555 00f2 3F4F      		sbci r19,-1
 556 00f4 249F      		mul r18,r20
 557 00f6 8001      		movw r16,r0
 558 00f8 259F      		mul r18,r21
 559 00fa 100D      		add r17,r0
 560 00fc 349F      		mul r19,r20
 561 00fe 100D      		add r17,r0
 562 0100 1124      		clr r1
 563 0102 2185      		ldd r18,Z+9
 564 0104 3285      		ldd r19,Z+10
 565 0106 2A0F      		add r18,r26
 566 0108 3B1F      		adc r19,r27
 567 010a 200F      		add r18,r16
 568 010c 311F      		adc r19,r17
 569 010e E901      		movw r28,r18
 570 0110 9881      		ld r25,Y
 571 0112 20E0      		ldi r18,0
 572               	.L52:
 573 0114 3385      		ldd r19,Z+11
 574 0116 3F77      		andi r19,lo8(127)
 575 0118 2317      		cp r18,r19
 576 011a 00F4      		brsh .L51
 577 011c CFE9      		ldi r28,lo8(3999)
 578 011e DFE0      		ldi r29,hi8(3999)
 579 0120 2197      	1:	sbiw r28,1
 580 0122 01F4      		brne 1b
 581 0124 00C0      		rjmp .
 582 0126 0000      		nop
 583 0128 2F5F      		subi r18,lo8(-(1))
GAS LISTING C:\Users\Aluno\AppData\Local\Temp\ccdHqSBZ.s 			page 11


 584 012a 00C0      		rjmp .L52
 585               	.L51:
 586 012c 2081      		ld r18,Z
 587 012e 3181      		ldd r19,Z+1
 588 0130 E901      		movw r28,r18
 589 0132 AC80      		ldd r10,Y+4
 590 0134 BD80      		ldd r11,Y+5
 591 0136 9E80      		ldd r9,Y+6
 592 0138 0B85      		ldd r16,Y+11
 593 013a 6301      		movw r12,r6
 594 013c 042E      		mov r0,r20
 595 013e 00C0      		rjmp 2f
 596               		1:
 597 0140 CC0C      		lsl r12
 598 0142 DD1C      		rol r13
 599               		2:
 600 0144 0A94      		dec r0
 601 0146 02F4      		brpl 1b
 602               	.L53:
 603 0148 E501      		movw r28,r10
 604 014a 2881      		ld r18,Y
 605 014c 2921      		and r18,r9
 606 014e 30E0      		ldi r19,0
 607 0150 002E      		mov r0,r16
 608 0152 00C0      		rjmp 2f
 609               		1:
 610 0154 3595      		asr r19
 611 0156 2795      		ror r18
 612               		2:
 613 0158 0A94      		dec r0
 614 015a 02F4      		brpl 1b
 615 015c 7901      		movw r14,r18
 616 015e EC20      		and r14,r12
 617 0160 01F0      		breq .L53
 618 0162 4F5F      		subi r20,-1
 619 0164 5F4F      		sbci r21,-1
 620 0166 00C0      		rjmp .L54
 621               	.L50:
 622 0168 0281      		ldd r16,Z+2
 623 016a 1381      		ldd r17,Z+3
 624 016c E801      		movw r28,r16
 625 016e 4A81      		ldd r20,Y+2
 626 0170 5B81      		ldd r21,Y+3
 627 0172 EA01      		movw r28,r20
 628 0174 2881      		ld r18,Y
 629 0176 E801      		movw r28,r16
 630 0178 3E81      		ldd r19,Y+6
 631 017a 232B      		or r18,r19
 632 017c EA01      		movw r28,r20
 633 017e 2883      		st Y,r18
 634 0180 1196      		adiw r26,1
 635 0182 00C0      		rjmp .L48
 636               	.L49:
 637 0184 DB01      		movw r26,r22
 638 0186 9C93      		st X,r25
 639 0188 1682      		std Z+6,__zero_reg__
 640 018a 1582      		std Z+5,__zero_reg__
GAS LISTING C:\Users\Aluno\AppData\Local\Temp\ccdHqSBZ.s 			page 12


 641 018c 00C0      		rjmp .L45
 643               		.section	.text._ZN6Keypad12getLastErrorEv,"ax",@progbits
 644               	.global	_ZN6Keypad12getLastErrorEv
 646               	_ZN6Keypad12getLastErrorEv:
 647               	/* prologue: function */
 648               	/* frame size = 0 */
 649               	/* stack size = 0 */
 650               	.L__stack_usage = 0
 651 0000 FC01      		movw r30,r24
 652 0002 8581      		ldd r24,Z+5
 653 0004 9681      		ldd r25,Z+6
 654               	/* epilogue start */
 655 0006 0895      		ret
 657               		.ident	"GCC: (AVR_8_bit_GNU_Toolchain_3.7.0_1796) 7.3.0"
GAS LISTING C:\Users\Aluno\AppData\Local\Temp\ccdHqSBZ.s 			page 13


DEFINED SYMBOLS
                            *ABS*:0000000000000000 funsapeLibKeypad.cpp
C:\Users\Aluno\AppData\Local\Temp\ccdHqSBZ.s:2      *ABS*:000000000000003e __SP_H__
C:\Users\Aluno\AppData\Local\Temp\ccdHqSBZ.s:3      *ABS*:000000000000003d __SP_L__
C:\Users\Aluno\AppData\Local\Temp\ccdHqSBZ.s:4      *ABS*:000000000000003f __SREG__
C:\Users\Aluno\AppData\Local\Temp\ccdHqSBZ.s:5      *ABS*:0000000000000000 __tmp_reg__
C:\Users\Aluno\AppData\Local\Temp\ccdHqSBZ.s:6      *ABS*:0000000000000001 __zero_reg__
C:\Users\Aluno\AppData\Local\Temp\ccdHqSBZ.s:11     .text._Z7getTickv:0000000000000000 _Z7getTickv
C:\Users\Aluno\AppData\Local\Temp\ccdHqSBZ.s:25     .text._ZN6KeypadC2Ev:0000000000000000 _ZN6KeypadC2Ev
C:\Users\Aluno\AppData\Local\Temp\ccdHqSBZ.s:25     .text._ZN6KeypadC2Ev:0000000000000000 _ZN6KeypadC1Ev
C:\Users\Aluno\AppData\Local\Temp\ccdHqSBZ.s:59     .text._ZN6KeypadD2Ev:0000000000000000 _ZN6KeypadD2Ev
C:\Users\Aluno\AppData\Local\Temp\ccdHqSBZ.s:59     .text._ZN6KeypadD2Ev:0000000000000000 _ZN6KeypadD1Ev
C:\Users\Aluno\AppData\Local\Temp\ccdHqSBZ.s:79     .text._ZN6Keypad4initEh:0000000000000000 _ZN6Keypad4initEh
C:\Users\Aluno\AppData\Local\Temp\ccdHqSBZ.s:189    .text._ZN6Keypad8setPortsEPK7GpioBusS2_:0000000000000000 _ZN6Keypad8setPortsEPK7GpioBusS2_
C:\Users\Aluno\AppData\Local\Temp\ccdHqSBZ.s:248    .text._ZN6Keypad12setKeyValuesENS_4TypeEz:0000000000000000 _ZN6Keypad12setKeyValuesENS_4TypeEz
C:\Users\Aluno\AppData\Local\Temp\ccdHqSBZ.s:417    .text._ZN6Keypad14readKeyPressedEPh:0000000000000000 _ZN6Keypad14readKeyPressedEPh
C:\Users\Aluno\AppData\Local\Temp\ccdHqSBZ.s:646    .text._ZN6Keypad12getLastErrorEv:0000000000000000 _ZN6Keypad12getLastErrorEv

UNDEFINED SYMBOLS
free
_ZN7GpioBus10getBusSizeEv
_ZN7GpioBus7setModeENS_4ModeE
realloc
