GAS LISTING C:\Users\Docker\AppData\Local\Temp\ccEbIG31.s 			page 1


   1               		.file	"funsapeLibGpioBus.cpp"
   2               	__SP_H__ = 0x3e
   3               	__SP_L__ = 0x3d
   4               	__SREG__ = 0x3f
   5               	__tmp_reg__ = 0
   6               	__zero_reg__ = 1
   7               		.text
   8               		.section	.text._Z7getTickv,"ax",@progbits
   9               		.weak	_Z7getTickv
  11               	_Z7getTickv:
  12               	/* prologue: function */
  13               	/* frame size = 0 */
  14               	/* stack size = 0 */
  15               	.L__stack_usage = 0
  16 0000 60E0      		ldi r22,0
  17 0002 70E0      		ldi r23,0
  18 0004 CB01      		movw r24,r22
  19               	/* epilogue start */
  20 0006 0895      		ret
  22               		.section	.text._ZN7GpioBusC2Ev,"ax",@progbits
  23               	.global	_ZN7GpioBusC2Ev
  25               	_ZN7GpioBusC2Ev:
  26               	/* prologue: function */
  27               	/* frame size = 0 */
  28               	/* stack size = 0 */
  29               	.L__stack_usage = 0
  30 0000 FC01      		movw r30,r24
  31 0002 1182      		std Z+1,__zero_reg__
  32 0004 1082      		st Z,__zero_reg__
  33 0006 1382      		std Z+3,__zero_reg__
  34 0008 1282      		std Z+2,__zero_reg__
  35 000a 1582      		std Z+5,__zero_reg__
  36 000c 1482      		std Z+4,__zero_reg__
  37 000e 1682      		std Z+6,__zero_reg__
  38 0010 1386      		std Z+11,__zero_reg__
  39 0012 8781      		ldd r24,Z+7
  40 0014 8E7F      		andi r24,lo8(~(1<<0))
  41 0016 8783      		std Z+7,r24
  42 0018 81E0      		ldi r24,lo8(1)
  43 001a 8287      		std Z+10,r24
  44 001c 8485      		ldd r24,Z+12
  45 001e 807F      		andi r24,lo8(-16)
  46 0020 8487      		std Z+12,r24
  47 0022 1186      		std Z+9,__zero_reg__
  48 0024 1086      		std Z+8,__zero_reg__
  49               	/* epilogue start */
  50 0026 0895      		ret
  52               	.global	_ZN7GpioBusC1Ev
  53               		.set	_ZN7GpioBusC1Ev,_ZN7GpioBusC2Ev
  54               		.section	.text._ZN7GpioBusD2Ev,"ax",@progbits
  55               	.global	_ZN7GpioBusD2Ev
  57               	_ZN7GpioBusD2Ev:
  58               	/* prologue: function */
  59               	/* frame size = 0 */
  60               	/* stack size = 0 */
  61               	.L__stack_usage = 0
  62               	/* epilogue start */
GAS LISTING C:\Users\Docker\AppData\Local\Temp\ccEbIG31.s 			page 2


  63 0000 0895      		ret
  65               	.global	_ZN7GpioBusD1Ev
  66               		.set	_ZN7GpioBusD1Ev,_ZN7GpioBusD2Ev
  67               		.section	.text._ZN7GpioBus12getLastErrorEv,"ax",@progbits
  68               	.global	_ZN7GpioBus12getLastErrorEv
  70               	_ZN7GpioBus12getLastErrorEv:
  71               	/* prologue: function */
  72               	/* frame size = 0 */
  73               	/* stack size = 0 */
  74               	.L__stack_usage = 0
  75 0000 FC01      		movw r30,r24
  76 0002 8085      		ldd r24,Z+8
  77 0004 9185      		ldd r25,Z+9
  78               	/* epilogue start */
  79 0006 0895      		ret
  81               		.section	.text._ZN7GpioBus4initEPVhNS_8PinIndexEh,"ax",@progbits
  82               	.global	_ZN7GpioBus4initEPVhNS_8PinIndexEh
  84               	_ZN7GpioBus4initEPVhNS_8PinIndexEh:
  85 0000 CF93      		push r28
  86 0002 DF93      		push r29
  87               	/* prologue: function */
  88               	/* frame size = 0 */
  89               	/* stack size = 2 */
  90               	.L__stack_usage = 2
  91 0004 FC01      		movw r30,r24
  92 0006 83ED      		ldi r24,lo8(-45)
  93 0008 90E0      		ldi r25,0
  94 000a 6115      		cp r22,__zero_reg__
  95 000c 7105      		cpc r23,__zero_reg__
  96 000e 01F0      		breq .L10
  97 0010 A42F      		mov r26,r20
  98 0012 A20F      		add r26,r18
  99 0014 BB27      		clr r27
 100 0016 BB1F      		rol r27
 101 0018 5197      		sbiw r26,17
 102 001a 04F0      		brlt .L8
 103 001c 86ED      		ldi r24,lo8(-42)
 104 001e 90E0      		ldi r25,0
 105               	.L10:
 106 0020 9187      		std Z+9,r25
 107 0022 8087      		std Z+8,r24
 108 0024 80E0      		ldi r24,0
 109               	.L5:
 110               	/* epilogue start */
 111 0026 DF91      		pop r29
 112 0028 CF91      		pop r28
 113 002a 0895      		ret
 114               	.L8:
 115 002c 8FEF      		ldi r24,lo8(-1)
 116 002e 820F      		add r24,r18
 117 0030 8031      		cpi r24,lo8(16)
 118 0032 00F0      		brlo .L9
 119 0034 87ED      		ldi r24,lo8(-41)
 120 0036 90E0      		ldi r25,0
 121 0038 00C0      		rjmp .L10
 122               	.L9:
 123 003a C1E0      		ldi r28,lo8(1)
GAS LISTING C:\Users\Docker\AppData\Local\Temp\ccEbIG31.s 			page 3


 124 003c D0E0      		ldi r29,0
 125 003e 022E      		mov r0,r18
 126 0040 00C0      		rjmp 2f
 127               		1:
 128 0042 CC0F      		lsl r28
 129 0044 DD1F      		rol r29
 130               		2:
 131 0046 0A94      		dec r0
 132 0048 02F4      		brpl 1b
 133 004a 2197      		sbiw r28,1
 134 004c 042E      		mov r0,r20
 135 004e 00C0      		rjmp 2f
 136               		1:
 137 0050 CC0F      		lsl r28
 138               		2:
 139 0052 0A94      		dec r0
 140 0054 02F4      		brpl 1b
 141 0056 CB01      		movw r24,r22
 142 0058 8097      		sbiw r24,32
 143 005a 63E0      		ldi r22,lo8(3)
 144 005c 70E0      		ldi r23,0
 145 005e 0E94 0000 		call __udivmodhi4
 146 0062 DB01      		movw r26,r22
 147 0064 AA0F      		lsl r26
 148 0066 BB1F      		rol r27
 149 0068 A60F      		add r26,r22
 150 006a B71F      		adc r27,r23
 151 006c CD01      		movw r24,r26
 152 006e 8196      		adiw r24,33
 153 0070 9183      		std Z+1,r25
 154 0072 8083      		st Z,r24
 155 0074 0196      		adiw r24,1
 156 0076 9383      		std Z+3,r25
 157 0078 8283      		std Z+2,r24
 158 007a 0297      		sbiw r24,2
 159 007c 9583      		std Z+5,r25
 160 007e 8483      		std Z+4,r24
 161 0080 C683      		std Z+6,r28
 162 0082 4387      		std Z+11,r20
 163 0084 8781      		ldd r24,Z+7
 164 0086 8160      		ori r24,lo8(1<<0)
 165 0088 8783      		std Z+7,r24
 166 008a 2F70      		andi r18,lo8(15)
 167 008c 8485      		ldd r24,Z+12
 168 008e 807F      		andi r24,lo8(-16)
 169 0090 282B      		or r18,r24
 170 0092 2487      		std Z+12,r18
 171 0094 9196      		adiw r26,33
 172 0096 8C91      		ld r24,X
 173 0098 9197      		sbiw r26,33
 174 009a C095      		com r28
 175 009c C823      		and r28,r24
 176 009e 9196      		adiw r26,33
 177 00a0 CC93      		st X,r28
 178 00a2 A281      		ldd r26,Z+2
 179 00a4 B381      		ldd r27,Z+3
 180 00a6 9C91      		ld r25,X
GAS LISTING C:\Users\Docker\AppData\Local\Temp\ccEbIG31.s 			page 4


 181 00a8 8681      		ldd r24,Z+6
 182 00aa 8095      		com r24
 183 00ac 8923      		and r24,r25
 184 00ae 8C93      		st X,r24
 185 00b0 1186      		std Z+9,__zero_reg__
 186 00b2 1086      		std Z+8,__zero_reg__
 187 00b4 81E0      		ldi r24,lo8(1)
 188 00b6 00C0      		rjmp .L5
 190               		.section	.text._ZN7GpioBus7setModeENS_4ModeE,"ax",@progbits
 191               	.global	_ZN7GpioBus7setModeENS_4ModeE
 193               	_ZN7GpioBus7setModeENS_4ModeE:
 194               	/* prologue: function */
 195               	/* frame size = 0 */
 196               	/* stack size = 0 */
 197               	.L__stack_usage = 0
 198 0000 FC01      		movw r30,r24
 199 0002 9781      		ldd r25,Z+7
 200 0004 892F      		mov r24,r25
 201 0006 8170      		andi r24,1
 202 0008 90FF      		sbrs r25,0
 203 000a 00C0      		rjmp .L11
 204 000c 9285      		ldd r25,Z+10
 205 000e 9613      		cpse r25,r22
 206 0010 00C0      		rjmp .L13
 207               	.L23:
 208 0012 1186      		std Z+9,__zero_reg__
 209 0014 1086      		std Z+8,__zero_reg__
 210               	.L11:
 211               	/* epilogue start */
 212 0016 0895      		ret
 213               	.L13:
 214 0018 6330      		cpi r22,lo8(3)
 215 001a 01F0      		breq .L15
 216 001c 6530      		cpi r22,lo8(5)
 217 001e 01F0      		breq .L16
 218 0020 6130      		cpi r22,lo8(1)
 219 0022 01F4      		brne .L14
 220 0024 A081      		ld r26,Z
 221 0026 B181      		ldd r27,Z+1
 222 0028 2C91      		ld r18,X
 223 002a 9681      		ldd r25,Z+6
 224 002c 9095      		com r25
 225 002e 9223      		and r25,r18
 226 0030 9C93      		st X,r25
 227 0032 A281      		ldd r26,Z+2
 228 0034 B381      		ldd r27,Z+3
 229 0036 2C91      		ld r18,X
 230 0038 9681      		ldd r25,Z+6
 231 003a 9095      		com r25
 232 003c 9223      		and r25,r18
 233               	.L21:
 234 003e 9C93      		st X,r25
 235               	.L14:
 236 0040 6287      		std Z+10,r22
 237 0042 00C0      		rjmp .L23
 238               	.L15:
 239 0044 A081      		ld r26,Z
GAS LISTING C:\Users\Docker\AppData\Local\Temp\ccEbIG31.s 			page 5


 240 0046 B181      		ldd r27,Z+1
 241 0048 2C91      		ld r18,X
 242 004a 9681      		ldd r25,Z+6
 243 004c 9095      		com r25
 244 004e 9223      		and r25,r18
 245 0050 9C93      		st X,r25
 246 0052 A281      		ldd r26,Z+2
 247 0054 B381      		ldd r27,Z+3
 248               	.L22:
 249 0056 9C91      		ld r25,X
 250 0058 2681      		ldd r18,Z+6
 251 005a 922B      		or r25,r18
 252 005c 00C0      		rjmp .L21
 253               	.L16:
 254 005e A081      		ld r26,Z
 255 0060 B181      		ldd r27,Z+1
 256 0062 00C0      		rjmp .L22
 258               		.section	.text._ZN7GpioBus5writeEh,"ax",@progbits
 259               	.global	_ZN7GpioBus5writeEh
 261               	_ZN7GpioBus5writeEh:
 262               	/* prologue: function */
 263               	/* frame size = 0 */
 264               	/* stack size = 0 */
 265               	.L__stack_usage = 0
 266 0000 FC01      		movw r30,r24
 267 0002 9781      		ldd r25,Z+7
 268 0004 892F      		mov r24,r25
 269 0006 8170      		andi r24,1
 270 0008 90FD      		sbrc r25,0
 271 000a 00C0      		rjmp .L25
 272 000c 24E0      		ldi r18,lo8(4)
 273 000e 30E0      		ldi r19,0
 274 0010 3187      		std Z+9,r19
 275 0012 2087      		std Z+8,r18
 276 0014 0895      		ret
 277               	.L25:
 278 0016 A281      		ldd r26,Z+2
 279 0018 B381      		ldd r27,Z+3
 280 001a 9C91      		ld r25,X
 281 001c 2385      		ldd r18,Z+11
 282 001e 00C0      		rjmp 2f
 283               		1:
 284 0020 660F      		lsl r22
 285               		2:
 286 0022 2A95      		dec r18
 287 0024 02F4      		brpl 1b
 288 0026 6927      		eor r22,r25
 289 0028 2681      		ldd r18,Z+6
 290 002a 6223      		and r22,r18
 291 002c 6927      		eor r22,r25
 292 002e 6C93      		st X,r22
 293 0030 1186      		std Z+9,__zero_reg__
 294 0032 1086      		std Z+8,__zero_reg__
 295               	/* epilogue start */
 296 0034 0895      		ret
 298               		.section	.text._ZN7GpioBus10getBusSizeEv,"ax",@progbits
 299               	.global	_ZN7GpioBus10getBusSizeEv
GAS LISTING C:\Users\Docker\AppData\Local\Temp\ccEbIG31.s 			page 6


 301               	_ZN7GpioBus10getBusSizeEv:
 302               	/* prologue: function */
 303               	/* frame size = 0 */
 304               	/* stack size = 0 */
 305               	.L__stack_usage = 0
 306 0000 FC01      		movw r30,r24
 307 0002 2781      		ldd r18,Z+7
 308 0004 20FF      		sbrs r18,0
 309 0006 00C0      		rjmp .L29
 310 0008 8485      		ldd r24,Z+12
 311 000a 8F70      		andi r24,lo8(15)
 312 000c 0895      		ret
 313               	.L29:
 314 000e 80E0      		ldi r24,0
 315               	/* epilogue start */
 316 0010 0895      		ret
 318               		.ident	"GCC: (AVR_8_bit_GNU_Toolchain_3.7.0_1796) 7.3.0"
GAS LISTING C:\Users\Docker\AppData\Local\Temp\ccEbIG31.s 			page 7


DEFINED SYMBOLS
                            *ABS*:0000000000000000 funsapeLibGpioBus.cpp
C:\Users\Docker\AppData\Local\Temp\ccEbIG31.s:2      *ABS*:000000000000003e __SP_H__
C:\Users\Docker\AppData\Local\Temp\ccEbIG31.s:3      *ABS*:000000000000003d __SP_L__
C:\Users\Docker\AppData\Local\Temp\ccEbIG31.s:4      *ABS*:000000000000003f __SREG__
C:\Users\Docker\AppData\Local\Temp\ccEbIG31.s:5      *ABS*:0000000000000000 __tmp_reg__
C:\Users\Docker\AppData\Local\Temp\ccEbIG31.s:6      *ABS*:0000000000000001 __zero_reg__
C:\Users\Docker\AppData\Local\Temp\ccEbIG31.s:11     .text._Z7getTickv:0000000000000000 _Z7getTickv
C:\Users\Docker\AppData\Local\Temp\ccEbIG31.s:25     .text._ZN7GpioBusC2Ev:0000000000000000 _ZN7GpioBusC2Ev
C:\Users\Docker\AppData\Local\Temp\ccEbIG31.s:25     .text._ZN7GpioBusC2Ev:0000000000000000 _ZN7GpioBusC1Ev
C:\Users\Docker\AppData\Local\Temp\ccEbIG31.s:57     .text._ZN7GpioBusD2Ev:0000000000000000 _ZN7GpioBusD2Ev
C:\Users\Docker\AppData\Local\Temp\ccEbIG31.s:57     .text._ZN7GpioBusD2Ev:0000000000000000 _ZN7GpioBusD1Ev
C:\Users\Docker\AppData\Local\Temp\ccEbIG31.s:70     .text._ZN7GpioBus12getLastErrorEv:0000000000000000 _ZN7GpioBus12getLastErrorEv
C:\Users\Docker\AppData\Local\Temp\ccEbIG31.s:84     .text._ZN7GpioBus4initEPVhNS_8PinIndexEh:0000000000000000 _ZN7GpioBus4initEPVhNS_8PinIndexEh
C:\Users\Docker\AppData\Local\Temp\ccEbIG31.s:193    .text._ZN7GpioBus7setModeENS_4ModeE:0000000000000000 _ZN7GpioBus7setModeENS_4ModeE
C:\Users\Docker\AppData\Local\Temp\ccEbIG31.s:261    .text._ZN7GpioBus5writeEh:0000000000000000 _ZN7GpioBus5writeEh
C:\Users\Docker\AppData\Local\Temp\ccEbIG31.s:301    .text._ZN7GpioBus10getBusSizeEv:0000000000000000 _ZN7GpioBus10getBusSizeEv

UNDEFINED SYMBOLS
__udivmodhi4
