GAS LISTING C:\Users\Docker\AppData\Local\Temp\ccUap9II.s 			page 1


   1               		.file	"funsapeLibUsart0.cpp"
   2               	__SP_H__ = 0x3e
   3               	__SP_L__ = 0x3d
   4               	__SREG__ = 0x3f
   5               	__tmp_reg__ = 0
   6               	__zero_reg__ = 1
   7               		.text
   8               		.section	.text._Z23usartTransmitStdWrappercP6__file,"ax",@progbits
   9               	.global	_Z23usartTransmitStdWrappercP6__file
  11               	_Z23usartTransmitStdWrappercP6__file:
  12               	/* prologue: function */
  13               	/* frame size = 0 */
  14               	/* stack size = 0 */
  15               	.L__stack_usage = 0
  16               	.L2:
  17 0000 9091 C000 		lds r25,192
  18 0004 95FF      		sbrs r25,5
  19 0006 00C0      		rjmp .L2
  20 0008 8093 C600 		sts 198,r24
  21 000c 90E0      		ldi r25,0
  22 000e 80E0      		ldi r24,0
  23               	/* epilogue start */
  24 0010 0895      		ret
  26               		.section	.text._Z7getTickv,"ax",@progbits
  27               		.weak	_Z7getTickv
  29               	_Z7getTickv:
  30               	/* prologue: function */
  31               	/* frame size = 0 */
  32               	/* stack size = 0 */
  33               	.L__stack_usage = 0
  34 0000 60E0      		ldi r22,0
  35 0002 70E0      		ldi r23,0
  36 0004 CB01      		movw r24,r22
  37               	/* epilogue start */
  38 0006 0895      		ret
  40               		.section	.text._ZN6Usart0D2Ev,"ax",@progbits
  41               	.global	_ZN6Usart0D2Ev
  43               	_ZN6Usart0D2Ev:
  44               	/* prologue: function */
  45               	/* frame size = 0 */
  46               	/* stack size = 0 */
  47               	.L__stack_usage = 0
  48               	/* epilogue start */
  49 0000 0895      		ret
  51               	.global	_ZN6Usart0D1Ev
  52               		.set	_ZN6Usart0D1Ev,_ZN6Usart0D2Ev
  53               		.section	.text._ZN6Usart04initEv,"ax",@progbits
  54               	.global	_ZN6Usart04initEv
  56               	_ZN6Usart04initEv:
  57 0000 2F92      		push r2
  58 0002 3F92      		push r3
  59 0004 4F92      		push r4
  60 0006 5F92      		push r5
  61 0008 6F92      		push r6
  62 000a 7F92      		push r7
  63 000c 8F92      		push r8
  64 000e 9F92      		push r9
GAS LISTING C:\Users\Docker\AppData\Local\Temp\ccUap9II.s 			page 2


  65 0010 AF92      		push r10
  66 0012 BF92      		push r11
  67 0014 CF92      		push r12
  68 0016 DF92      		push r13
  69 0018 EF92      		push r14
  70 001a FF92      		push r15
  71 001c 0F93      		push r16
  72 001e 1F93      		push r17
  73 0020 CF93      		push r28
  74 0022 DF93      		push r29
  75 0024 00D0      		rcall .
  76 0026 00D0      		rcall .
  77 0028 CDB7      		in r28,__SP_L__
  78 002a DEB7      		in r29,__SP_H__
  79               	/* prologue: function */
  80               	/* frame size = 4 */
  81               	/* stack size = 22 */
  82               	.L__stack_usage = 22
  83 002c 7C01      		movw r14,r24
  84 002e 2091 C000 		lds r18,192
  85 0032 3091 C100 		lds r19,193
  86 0036 8091 C200 		lds r24,194
  87 003a 4091 C400 		lds r20,196
  88 003e 5091 C500 		lds r21,196+1
  89 0042 1982      		std Y+1,__zero_reg__
  90 0044 1A82      		std Y+2,__zero_reg__
  91 0046 1B82      		std Y+3,__zero_reg__
  92 0048 1C82      		std Y+4,__zero_reg__
  93 004a D701      		movw r26,r14
  94 004c 1B96      		adiw r26,11
  95 004e 9C91      		ld r25,X
  96 0050 9923      		tst r25
  97 0052 01F0      		breq .L9
  98 0054 9130      		cpi r25,lo8(1)
  99 0056 01F0      		breq .L10
 100               	.L8:
 101 0058 8F7C      		andi r24,lo8(-49)
 102 005a F701      		movw r30,r14
 103 005c 9285      		ldd r25,Z+10
 104 005e 9130      		cpi r25,lo8(1)
 105 0060 01F0      		breq .L12
 106 0062 9230      		cpi r25,lo8(2)
 107 0064 01F0      		breq .L13
 108               	.L11:
 109 0066 D32E      		mov r13,r19
 110 0068 E894      		clt
 111 006a D2F8      		bld r13,2
 112 006c 897F      		andi r24,lo8(-7)
 113 006e D701      		movw r26,r14
 114 0070 1496      		adiw r26,4
 115 0072 9C91      		ld r25,X
 116 0074 9230      		cpi r25,lo8(2)
 117 0076 01F0      		breq .L15
 118 0078 00F4      		brsh .L16
 119 007a 9130      		cpi r25,lo8(1)
 120 007c 01F0      		breq .L17
 121               	.L14:
GAS LISTING C:\Users\Docker\AppData\Local\Temp\ccUap9II.s 			page 3


 122 007e 217E      		andi r18,lo8(-31)
 123 0080 C22E      		mov r12,r18
 124 0082 182F      		mov r17,r24
 125 0084 1E73      		andi r17,lo8(62)
 126 0086 D701      		movw r26,r14
 127 0088 1596      		adiw r26,5
 128 008a EC91      		ld r30,X
 129 008c 01E0      		ldi r16,lo8(1)
 130 008e E830      		cpi r30,lo8(8)
 131 0090 00F4      		brsh .L20
 132 0092 F0E0      		ldi r31,0
 133 0094 E050      		subi r30,lo8(-(gs(.L22)))
 134 0096 F040      		sbci r31,hi8(-(gs(.L22)))
 135 0098 0C94 0000 		jmp __tablejump2__
 136               		.p2align	1
 137               	.L22:
 138 009c 0000      		.word gs(.L21)
 139 009e 0000      		.word gs(.L23)
 140 00a0 0000      		.word gs(.L24)
 141 00a2 0000      		.word gs(.L25)
 142 00a4 0000      		.word gs(.L26)
 143 00a6 0000      		.word gs(.L27)
 144 00a8 0000      		.word gs(.L28)
 145 00aa 0000      		.word gs(.L29)
 146               	.L9:
 147 00ac 877F      		andi r24,lo8(-9)
 148 00ae 00C0      		rjmp .L8
 149               	.L10:
 150 00b0 8860      		ori r24,lo8(8)
 151 00b2 00C0      		rjmp .L8
 152               	.L12:
 153 00b4 8063      		ori r24,lo8(48)
 154 00b6 00C0      		rjmp .L11
 155               	.L13:
 156 00b8 8062      		ori r24,lo8(32)
 157 00ba 00C0      		rjmp .L11
 158               	.L16:
 159 00bc 9330      		cpi r25,lo8(3)
 160 00be 01F0      		breq .L31
 161 00c0 9730      		cpi r25,lo8(7)
 162 00c2 01F4      		brne .L14
 163 00c4 6894      		set
 164 00c6 D2F8      		bld r13,2
 165               	.L31:
 166 00c8 8660      		ori r24,lo8(6)
 167 00ca 00C0      		rjmp .L14
 168               	.L17:
 169 00cc 8260      		ori r24,lo8(2)
 170 00ce 00C0      		rjmp .L14
 171               	.L15:
 172 00d0 8460      		ori r24,lo8(4)
 173 00d2 00C0      		rjmp .L14
 174               	.L21:
 175 00d4 00E1      		ldi r16,lo8(16)
 176               	.L20:
 177 00d6 BE01      		movw r22,r28
 178 00d8 6F5F      		subi r22,-1
GAS LISTING C:\Users\Docker\AppData\Local\Temp\ccUap9II.s 			page 4


 179 00da 7F4F      		sbci r23,-1
 180 00dc 80E0      		ldi r24,lo8(systemStatus)
 181 00de 90E0      		ldi r25,hi8(systemStatus)
 182 00e0 0E94 0000 		call _ZN12SystemStatus11getCpuClockEPm
 183 00e4 F701      		movw r30,r14
 184 00e6 2681      		ldd r18,Z+6
 185 00e8 3781      		ldd r19,Z+7
 186 00ea 4085      		ldd r20,Z+8
 187 00ec 5185      		ldd r21,Z+9
 188 00ee A02F      		mov r26,r16
 189 00f0 B0E0      		ldi r27,0
 190 00f2 0E94 0000 		call __muluhisi3
 191 00f6 9B01      		movw r18,r22
 192 00f8 AC01      		movw r20,r24
 193 00fa 6981      		ldd r22,Y+1
 194 00fc 7A81      		ldd r23,Y+2
 195 00fe 8B81      		ldd r24,Y+3
 196 0100 9C81      		ldd r25,Y+4
 197 0102 0E94 0000 		call __udivmodsi4
 198 0106 1901      		movw r2,r18
 199 0108 2A01      		movw r4,r20
 200 010a F1E0      		ldi r31,1
 201 010c 2F1A      		sub r2,r31
 202 010e 3108      		sbc r3,__zero_reg__
 203 0110 4108      		sbc r4,__zero_reg__
 204 0112 5108      		sbc r5,__zero_reg__
 205 0114 C092 C000 		sts 192,r12
 206 0118 D092 C100 		sts 193,r13
 207 011c 1093 C200 		sts 194,r17
 208 0120 9101      		movw r18,r2
 209 0122 A201      		movw r20,r4
 210 0124 60E0      		ldi r22,0
 211 0126 70E0      		ldi r23,0
 212 0128 80E0      		ldi r24,0
 213 012a 90E0      		ldi r25,0
 214 012c 08E0      		ldi r16,lo8(8)
 215 012e 0E94 0000 		call __lshrdi3
 216 0132 2F70      		andi r18,lo8(15)
 217 0134 2093 C500 		sts 197,r18
 218 0138 2092 C400 		sts 196,r2
 219 013c D701      		movw r26,r14
 220 013e 1396      		adiw r26,2+1
 221 0140 1C92      		st X,__zero_reg__
 222 0142 1E92      		st -X,__zero_reg__
 223 0144 1297      		sbiw r26,2
 224 0146 81E0      		ldi r24,lo8(1)
 225               	/* epilogue start */
 226 0148 0F90      		pop __tmp_reg__
 227 014a 0F90      		pop __tmp_reg__
 228 014c 0F90      		pop __tmp_reg__
 229 014e 0F90      		pop __tmp_reg__
 230 0150 DF91      		pop r29
 231 0152 CF91      		pop r28
 232 0154 1F91      		pop r17
 233 0156 0F91      		pop r16
 234 0158 FF90      		pop r15
 235 015a EF90      		pop r14
GAS LISTING C:\Users\Docker\AppData\Local\Temp\ccUap9II.s 			page 5


 236 015c DF90      		pop r13
 237 015e CF90      		pop r12
 238 0160 BF90      		pop r11
 239 0162 AF90      		pop r10
 240 0164 9F90      		pop r9
 241 0166 8F90      		pop r8
 242 0168 7F90      		pop r7
 243 016a 6F90      		pop r6
 244 016c 5F90      		pop r5
 245 016e 4F90      		pop r4
 246 0170 3F90      		pop r3
 247 0172 2F90      		pop r2
 248 0174 0895      		ret
 249               	.L23:
 250 0176 6894      		set
 251 0178 C1F8      		bld r12,1
 252 017a 08E0      		ldi r16,lo8(8)
 253 017c 00C0      		rjmp .L20
 254               	.L24:
 255 017e 1064      		ori r17,lo8(64)
 256               	.L32:
 257 0180 02E0      		ldi r16,lo8(2)
 258 0182 00C0      		rjmp .L20
 259               	.L25:
 260 0184 1164      		ori r17,lo8(65)
 261 0186 00C0      		rjmp .L32
 262               	.L26:
 263 0188 8C73      		andi r24,lo8(60)
 264 018a 182F      		mov r17,r24
 265 018c 106C      		ori r17,lo8(-64)
 266 018e 00C0      		rjmp .L32
 267               	.L27:
 268 0190 126C      		ori r17,lo8(-62)
 269 0192 00C0      		rjmp .L32
 270               	.L28:
 271 0194 8C73      		andi r24,lo8(60)
 272 0196 182F      		mov r17,r24
 273 0198 116C      		ori r17,lo8(-63)
 274 019a 00C0      		rjmp .L32
 275               	.L29:
 276 019c 136C      		ori r17,lo8(-61)
 277 019e 00C0      		rjmp .L32
 279               		.section	.text._ZN6Usart07setModeENS_4ModeE,"ax",@progbits
 280               	.global	_ZN6Usart07setModeENS_4ModeE
 282               	_ZN6Usart07setModeENS_4ModeE:
 283               	/* prologue: function */
 284               	/* frame size = 0 */
 285               	/* stack size = 0 */
 286               	.L__stack_usage = 0
 287 0000 FC01      		movw r30,r24
 288 0002 8081      		ld r24,Z
 289 0004 877F      		andi r24,lo8(~(1<<3))
 290 0006 8083      		st Z,r24
 291 0008 6830      		cpi r22,lo8(8)
 292 000a 00F0      		brlo .L37
 293 000c 8CE0      		ldi r24,lo8(12)
 294 000e 90E0      		ldi r25,0
GAS LISTING C:\Users\Docker\AppData\Local\Temp\ccUap9II.s 			page 6


 295 0010 9383      		std Z+3,r25
 296 0012 8283      		std Z+2,r24
 297 0014 80E0      		ldi r24,0
 298 0016 0895      		ret
 299               	.L37:
 300 0018 6583      		std Z+5,r22
 301 001a 1382      		std Z+3,__zero_reg__
 302 001c 1282      		std Z+2,__zero_reg__
 303 001e 81E0      		ldi r24,lo8(1)
 304               	/* epilogue start */
 305 0020 0895      		ret
 307               		.section	.text._ZN6Usart011setDataSizeENS_8DataSizeE,"ax",@progbits
 308               	.global	_ZN6Usart011setDataSizeENS_8DataSizeE
 310               	_ZN6Usart011setDataSizeENS_8DataSizeE:
 311               	/* prologue: function */
 312               	/* frame size = 0 */
 313               	/* stack size = 0 */
 314               	.L__stack_usage = 0
 315 0000 FC01      		movw r30,r24
 316 0002 8081      		ld r24,Z
 317 0004 877F      		andi r24,lo8(~(1<<3))
 318 0006 8083      		st Z,r24
 319 0008 6430      		cpi r22,lo8(4)
 320 000a 00F0      		brlo .L40
 321 000c 6730      		cpi r22,lo8(7)
 322 000e 01F0      		breq .L40
 323 0010 82EB      		ldi r24,lo8(-78)
 324 0012 90E0      		ldi r25,0
 325 0014 9383      		std Z+3,r25
 326 0016 8283      		std Z+2,r24
 327 0018 80E0      		ldi r24,0
 328 001a 0895      		ret
 329               	.L40:
 330 001c 6483      		std Z+4,r22
 331 001e 1382      		std Z+3,__zero_reg__
 332 0020 1282      		std Z+2,__zero_reg__
 333 0022 81E0      		ldi r24,lo8(1)
 334               	/* epilogue start */
 335 0024 0895      		ret
 337               		.section	.text._ZN6Usart011setStopBitsENS_8StopBitsE,"ax",@progbits
 338               	.global	_ZN6Usart011setStopBitsENS_8StopBitsE
 340               	_ZN6Usart011setStopBitsENS_8StopBitsE:
 341               	/* prologue: function */
 342               	/* frame size = 0 */
 343               	/* stack size = 0 */
 344               	.L__stack_usage = 0
 345 0000 FC01      		movw r30,r24
 346 0002 8081      		ld r24,Z
 347 0004 877F      		andi r24,lo8(~(1<<3))
 348 0006 8083      		st Z,r24
 349 0008 6230      		cpi r22,lo8(2)
 350 000a 00F0      		brlo .L49
 351 000c 85EB      		ldi r24,lo8(-75)
 352 000e 90E0      		ldi r25,0
 353 0010 9383      		std Z+3,r25
 354 0012 8283      		std Z+2,r24
 355 0014 80E0      		ldi r24,0
GAS LISTING C:\Users\Docker\AppData\Local\Temp\ccUap9II.s 			page 7


 356 0016 0895      		ret
 357               	.L49:
 358 0018 6387      		std Z+11,r22
 359 001a 1382      		std Z+3,__zero_reg__
 360 001c 1282      		std Z+2,__zero_reg__
 361 001e 81E0      		ldi r24,lo8(1)
 362               	/* epilogue start */
 363 0020 0895      		ret
 365               		.section	.text._ZN6Usart013setParityModeENS_10ParityModeE,"ax",@progbits
 366               	.global	_ZN6Usart013setParityModeENS_10ParityModeE
 368               	_ZN6Usart013setParityModeENS_10ParityModeE:
 369               	/* prologue: function */
 370               	/* frame size = 0 */
 371               	/* stack size = 0 */
 372               	.L__stack_usage = 0
 373 0000 FC01      		movw r30,r24
 374 0002 8081      		ld r24,Z
 375 0004 877F      		andi r24,lo8(~(1<<3))
 376 0006 8083      		st Z,r24
 377 0008 6330      		cpi r22,lo8(3)
 378 000a 00F0      		brlo .L54
 379 000c 84EB      		ldi r24,lo8(-76)
 380 000e 90E0      		ldi r25,0
 381 0010 9383      		std Z+3,r25
 382 0012 8283      		std Z+2,r24
 383 0014 80E0      		ldi r24,0
 384 0016 0895      		ret
 385               	.L54:
 386 0018 6287      		std Z+10,r22
 387 001a 1382      		std Z+3,__zero_reg__
 388 001c 1282      		std Z+2,__zero_reg__
 389 001e 81E0      		ldi r24,lo8(1)
 390               	/* epilogue start */
 391 0020 0895      		ret
 393               		.section	.text._ZN6Usart011setBaudRateENS_8BaudRateE,"ax",@progbits
 394               	.global	_ZN6Usart011setBaudRateENS_8BaudRateE
 396               	_ZN6Usart011setBaudRateENS_8BaudRateE:
 397               	/* prologue: function */
 398               	/* frame size = 0 */
 399               	/* stack size = 0 */
 400               	.L__stack_usage = 0
 401 0000 FC01      		movw r30,r24
 402 0002 8081      		ld r24,Z
 403 0004 877F      		andi r24,lo8(~(1<<3))
 404 0006 8083      		st Z,r24
 405 0008 4115      		cp r20,__zero_reg__
 406 000a 8BE4      		ldi r24,75
 407 000c 5807      		cpc r21,r24
 408 000e 6105      		cpc r22,__zero_reg__
 409 0010 7105      		cpc r23,__zero_reg__
 410 0012 01F0      		breq .L57
 411 0014 00F4      		brsh .L58
 412 0016 4036      		cpi r20,96
 413 0018 89E0      		ldi r24,9
 414 001a 5807      		cpc r21,r24
 415 001c 6105      		cpc r22,__zero_reg__
 416 001e 7105      		cpc r23,__zero_reg__
GAS LISTING C:\Users\Docker\AppData\Local\Temp\ccUap9II.s 			page 8


 417 0020 01F0      		breq .L57
 418 0022 00F4      		brsh .L59
 419 0024 403B      		cpi r20,-80
 420 0026 84E0      		ldi r24,4
 421 0028 5807      		cpc r21,r24
 422 002a 6105      		cpc r22,__zero_reg__
 423 002c 7105      		cpc r23,__zero_reg__
 424 002e 01F0      		breq .L57
 425 0030 4830      		cpi r20,8
 426 0032 87E0      		ldi r24,7
 427 0034 5807      		cpc r21,r24
 428 0036 6105      		cpc r22,__zero_reg__
 429 0038 7105      		cpc r23,__zero_reg__
 430 003a 01F0      		breq .L57
 431 003c 4835      		cpi r20,88
 432 003e 82E0      		ldi r24,2
 433 0040 5807      		cpc r21,r24
 434 0042 6105      		cpc r22,__zero_reg__
 435 0044 7105      		cpc r23,__zero_reg__
 436 0046 01F4      		brne .L56
 437               	.L57:
 438 0048 4683      		std Z+6,r20
 439 004a 5783      		std Z+7,r21
 440 004c 6087      		std Z+8,r22
 441 004e 7187      		std Z+9,r23
 442 0050 1382      		std Z+3,__zero_reg__
 443 0052 1282      		std Z+2,__zero_reg__
 444 0054 81E0      		ldi r24,lo8(1)
 445               	/* epilogue start */
 446 0056 0895      		ret
 447               	.L59:
 448 0058 4038      		cpi r20,-128
 449 005a 85E2      		ldi r24,37
 450 005c 5807      		cpc r21,r24
 451 005e 6105      		cpc r22,__zero_reg__
 452 0060 7105      		cpc r23,__zero_reg__
 453 0062 01F0      		breq .L57
 454 0064 4034      		cpi r20,64
 455 0066 88E3      		ldi r24,56
 456 0068 5807      		cpc r21,r24
 457 006a 6105      		cpc r22,__zero_reg__
 458 006c 7105      		cpc r23,__zero_reg__
 459 006e 01F0      		breq .L57
 460 0070 403C      		cpi r20,-64
 461 0072 82E1      		ldi r24,18
 462 0074 5807      		cpc r21,r24
 463 0076 6105      		cpc r22,__zero_reg__
 464 0078 7105      		cpc r23,__zero_reg__
 465 007a 01F0      		breq .L57
 466               	.L56:
 467 007c 80EB      		ldi r24,lo8(-80)
 468 007e 90E0      		ldi r25,0
 469 0080 9383      		std Z+3,r25
 470 0082 8283      		std Z+2,r24
 471 0084 80E0      		ldi r24,0
 472 0086 0895      		ret
 473               	.L58:
GAS LISTING C:\Users\Docker\AppData\Local\Temp\ccUap9II.s 			page 9


 474 0088 4115      		cp r20,__zero_reg__
 475 008a 81EE      		ldi r24,-31
 476 008c 5807      		cpc r21,r24
 477 008e 6105      		cpc r22,__zero_reg__
 478 0090 7105      		cpc r23,__zero_reg__
 479 0092 01F0      		breq .L57
 480 0094 00F4      		brsh .L60
 481 0096 4115      		cp r20,__zero_reg__
 482 0098 86E9      		ldi r24,-106
 483 009a 5807      		cpc r21,r24
 484 009c 6105      		cpc r22,__zero_reg__
 485 009e 7105      		cpc r23,__zero_reg__
 486 00a0 01F0      		breq .L57
 487 00a2 403C      		cpi r20,-64
 488 00a4 8AED      		ldi r24,-38
 489 00a6 5807      		cpc r21,r24
 490 00a8 6105      		cpc r22,__zero_reg__
 491 00aa 7105      		cpc r23,__zero_reg__
 492 00ac 01F0      		breq .L57
 493 00ae 4038      		cpi r20,-128
 494 00b0 80E7      		ldi r24,112
 495 00b2 5807      		cpc r21,r24
 496 00b4 6105      		cpc r22,__zero_reg__
 497 00b6 7105      		cpc r23,__zero_reg__
 498 00b8 01F4      		brne .L56
 499 00ba 00C0      		rjmp .L57
 500               	.L60:
 501 00bc 4115      		cp r20,__zero_reg__
 502 00be 84EF      		ldi r24,-12
 503 00c0 5807      		cpc r21,r24
 504 00c2 81E0      		ldi r24,1
 505 00c4 6807      		cpc r22,r24
 506 00c6 7105      		cpc r23,__zero_reg__
 507 00c8 01F4      		brne .+2
 508 00ca 00C0      		rjmp .L57
 509 00cc 00F4      		brsh .L61
 510 00ce 4115      		cp r20,__zero_reg__
 511 00d0 82EC      		ldi r24,-62
 512 00d2 5807      		cpc r21,r24
 513 00d4 81E0      		ldi r24,1
 514 00d6 6807      		cpc r22,r24
 515 00d8 7105      		cpc r23,__zero_reg__
 516 00da 01F4      		brne .L56
 517 00dc 00C0      		rjmp .L57
 518               	.L61:
 519 00de 4115      		cp r20,__zero_reg__
 520 00e0 84E8      		ldi r24,-124
 521 00e2 5807      		cpc r21,r24
 522 00e4 83E0      		ldi r24,3
 523 00e6 6807      		cpc r22,r24
 524 00e8 7105      		cpc r23,__zero_reg__
 525 00ea 01F4      		brne .+2
 526 00ec 00C0      		rjmp .L57
 527 00ee 4115      		cp r20,__zero_reg__
 528 00f0 88EE      		ldi r24,-24
 529 00f2 5807      		cpc r21,r24
 530 00f4 83E0      		ldi r24,3
GAS LISTING C:\Users\Docker\AppData\Local\Temp\ccUap9II.s 			page 10


 531 00f6 6807      		cpc r22,r24
 532 00f8 7105      		cpc r23,__zero_reg__
 533 00fa 01F0      		breq .+2
 534 00fc 00C0      		rjmp .L56
 535 00fe 00C0      		rjmp .L57
 537               		.section	.text._ZN6Usart014setFrameFormatENS_11FrameFormatE,"ax",@progbits
 538               	.global	_ZN6Usart014setFrameFormatENS_11FrameFormatE
 540               	_ZN6Usart014setFrameFormatENS_11FrameFormatE:
 541               	/* prologue: function */
 542               	/* frame size = 0 */
 543               	/* stack size = 0 */
 544               	.L__stack_usage = 0
 545 0000 DC01      		movw r26,r24
 546 0002 8C91      		ld r24,X
 547 0004 877F      		andi r24,lo8(~(1<<3))
 548 0006 8C93      		st X,r24
 549 0008 EFEA      		ldi r30,lo8(-81)
 550 000a E60F      		add r30,r22
 551 000c EA34      		cpi r30,lo8(74)
 552 000e 00F0      		brlo .+2
 553 0010 00C0      		rjmp .L112
 554 0012 F0E0      		ldi r31,0
 555 0014 E050      		subi r30,lo8(-(gs(.L114)))
 556 0016 F040      		sbci r31,hi8(-(gs(.L114)))
 557 0018 0C94 0000 		jmp __tablejump2__
 558               		.p2align	1
 559               	.L114:
 560 001c 0000      		.word gs(.L113)
 561 001e 0000      		.word gs(.L113)
 562 0020 0000      		.word gs(.L112)
 563 0022 0000      		.word gs(.L112)
 564 0024 0000      		.word gs(.L113)
 565 0026 0000      		.word gs(.L113)
 566 0028 0000      		.word gs(.L112)
 567 002a 0000      		.word gs(.L112)
 568 002c 0000      		.word gs(.L113)
 569 002e 0000      		.word gs(.L113)
 570 0030 0000      		.word gs(.L112)
 571 0032 0000      		.word gs(.L112)
 572 0034 0000      		.word gs(.L112)
 573 0036 0000      		.word gs(.L112)
 574 0038 0000      		.word gs(.L112)
 575 003a 0000      		.word gs(.L112)
 576 003c 0000      		.word gs(.L113)
 577 003e 0000      		.word gs(.L113)
 578 0040 0000      		.word gs(.L112)
 579 0042 0000      		.word gs(.L112)
 580 0044 0000      		.word gs(.L113)
 581 0046 0000      		.word gs(.L113)
 582 0048 0000      		.word gs(.L112)
 583 004a 0000      		.word gs(.L112)
 584 004c 0000      		.word gs(.L113)
 585 004e 0000      		.word gs(.L113)
 586 0050 0000      		.word gs(.L112)
 587 0052 0000      		.word gs(.L112)
 588 0054 0000      		.word gs(.L112)
 589 0056 0000      		.word gs(.L112)
GAS LISTING C:\Users\Docker\AppData\Local\Temp\ccUap9II.s 			page 11


 590 0058 0000      		.word gs(.L112)
 591 005a 0000      		.word gs(.L112)
 592 005c 0000      		.word gs(.L113)
 593 005e 0000      		.word gs(.L113)
 594 0060 0000      		.word gs(.L112)
 595 0062 0000      		.word gs(.L112)
 596 0064 0000      		.word gs(.L113)
 597 0066 0000      		.word gs(.L113)
 598 0068 0000      		.word gs(.L112)
 599 006a 0000      		.word gs(.L112)
 600 006c 0000      		.word gs(.L113)
 601 006e 0000      		.word gs(.L113)
 602 0070 0000      		.word gs(.L112)
 603 0072 0000      		.word gs(.L112)
 604 0074 0000      		.word gs(.L112)
 605 0076 0000      		.word gs(.L112)
 606 0078 0000      		.word gs(.L112)
 607 007a 0000      		.word gs(.L112)
 608 007c 0000      		.word gs(.L113)
 609 007e 0000      		.word gs(.L113)
 610 0080 0000      		.word gs(.L112)
 611 0082 0000      		.word gs(.L112)
 612 0084 0000      		.word gs(.L113)
 613 0086 0000      		.word gs(.L113)
 614 0088 0000      		.word gs(.L112)
 615 008a 0000      		.word gs(.L112)
 616 008c 0000      		.word gs(.L113)
 617 008e 0000      		.word gs(.L113)
 618 0090 0000      		.word gs(.L112)
 619 0092 0000      		.word gs(.L112)
 620 0094 0000      		.word gs(.L112)
 621 0096 0000      		.word gs(.L112)
 622 0098 0000      		.word gs(.L112)
 623 009a 0000      		.word gs(.L112)
 624 009c 0000      		.word gs(.L113)
 625 009e 0000      		.word gs(.L113)
 626 00a0 0000      		.word gs(.L112)
 627 00a2 0000      		.word gs(.L112)
 628 00a4 0000      		.word gs(.L113)
 629 00a6 0000      		.word gs(.L113)
 630 00a8 0000      		.word gs(.L112)
 631 00aa 0000      		.word gs(.L112)
 632 00ac 0000      		.word gs(.L113)
 633 00ae 0000      		.word gs(.L113)
 634               	.L112:
 635 00b0 83EB      		ldi r24,lo8(-77)
 636 00b2 90E0      		ldi r25,0
 637               	.L133:
 638 00b4 1396      		adiw r26,2+1
 639 00b6 9C93      		st X,r25
 640 00b8 8E93      		st -X,r24
 641 00ba 1297      		sbiw r26,2
 642 00bc 80E0      		ldi r24,0
 643 00be 0895      		ret
 644               	.L113:
 645 00c0 862F      		mov r24,r22
 646 00c2 8370      		andi r24,lo8(3)
GAS LISTING C:\Users\Docker\AppData\Local\Temp\ccUap9II.s 			page 12


 647 00c4 8130      		cpi r24,lo8(1)
 648 00c6 01F0      		breq .L117
 649 00c8 8230      		cpi r24,lo8(2)
 650 00ca 01F0      		breq .L118
 651               	.L116:
 652 00cc 8FEF      		ldi r24,lo8(-1)
 653 00ce 9FEF      		ldi r25,lo8(-1)
 654 00d0 00C0      		rjmp .L133
 655               	.L117:
 656 00d2 1B96      		adiw r26,11
 657 00d4 1C92      		st X,__zero_reg__
 658 00d6 1B97      		sbiw r26,11
 659               	.L119:
 660 00d8 70E0      		ldi r23,0
 661 00da CB01      		movw r24,r22
 662 00dc 9595      		asr r25
 663 00de 8795      		ror r24
 664 00e0 9595      		asr r25
 665 00e2 8795      		ror r24
 666 00e4 8370      		andi r24,3
 667 00e6 9927      		clr r25
 668 00e8 8130      		cpi r24,1
 669 00ea 9105      		cpc r25,__zero_reg__
 670 00ec 01F0      		breq .L120
 671 00ee 8230      		cpi r24,2
 672 00f0 9105      		cpc r25,__zero_reg__
 673 00f2 01F0      		breq .L121
 674 00f4 892B      		or r24,r25
 675 00f6 01F4      		brne .L116
 676 00f8 1A96      		adiw r26,10
 677 00fa 1C92      		st X,__zero_reg__
 678 00fc 1A97      		sbiw r26,10
 679               	.L123:
 680 00fe 84E0      		ldi r24,4
 681               		1:
 682 0100 7595      		asr r23
 683 0102 6795      		ror r22
 684 0104 8A95      		dec r24
 685 0106 01F4      		brne 1b
 686 0108 6730      		cpi r22,7
 687 010a 7105      		cpc r23,__zero_reg__
 688 010c 01F0      		breq .L125
 689 010e 04F4      		brge .L126
 690 0110 81E0      		ldi r24,lo8(1)
 691 0112 6630      		cpi r22,6
 692 0114 7105      		cpc r23,__zero_reg__
 693 0116 01F0      		breq .L132
 694               	.L124:
 695 0118 1496      		adiw r26,4
 696 011a 1C92      		st X,__zero_reg__
 697 011c 1497      		sbiw r26,4
 698               	.L130:
 699 011e 1396      		adiw r26,2+1
 700 0120 1C92      		st X,__zero_reg__
 701 0122 1E92      		st -X,__zero_reg__
 702 0124 1297      		sbiw r26,2
 703 0126 81E0      		ldi r24,lo8(1)
GAS LISTING C:\Users\Docker\AppData\Local\Temp\ccUap9II.s 			page 13


 704               	/* epilogue start */
 705 0128 0895      		ret
 706               	.L118:
 707 012a 81E0      		ldi r24,lo8(1)
 708 012c 1B96      		adiw r26,11
 709 012e 8C93      		st X,r24
 710 0130 1B97      		sbiw r26,11
 711 0132 00C0      		rjmp .L119
 712               	.L120:
 713 0134 81E0      		ldi r24,lo8(1)
 714               	.L131:
 715 0136 1A96      		adiw r26,10
 716 0138 8C93      		st X,r24
 717 013a 1A97      		sbiw r26,10
 718 013c 00C0      		rjmp .L123
 719               	.L121:
 720 013e 82E0      		ldi r24,lo8(2)
 721 0140 00C0      		rjmp .L131
 722               	.L126:
 723 0142 6830      		cpi r22,8
 724 0144 7105      		cpc r23,__zero_reg__
 725 0146 01F0      		breq .L128
 726 0148 87E0      		ldi r24,lo8(7)
 727 014a 6930      		cpi r22,9
 728 014c 7105      		cpc r23,__zero_reg__
 729 014e 01F4      		brne .L124
 730               	.L132:
 731 0150 1496      		adiw r26,4
 732 0152 8C93      		st X,r24
 733 0154 1497      		sbiw r26,4
 734 0156 00C0      		rjmp .L130
 735               	.L125:
 736 0158 82E0      		ldi r24,lo8(2)
 737 015a 00C0      		rjmp .L132
 738               	.L128:
 739 015c 83E0      		ldi r24,lo8(3)
 740 015e 00C0      		rjmp .L132
 742               		.section	.text._ZN6Usart0C2ENS_8BaudRateENS_4ModeENS_11FrameFormatE,"ax",@progbits
 743               	.global	_ZN6Usart0C2ENS_8BaudRateENS_4ModeENS_11FrameFormatE
 745               	_ZN6Usart0C2ENS_8BaudRateENS_4ModeENS_11FrameFormatE:
 746 0000 0F93      		push r16
 747 0002 1F93      		push r17
 748 0004 CF93      		push r28
 749 0006 DF93      		push r29
 750               	/* prologue: function */
 751               	/* frame size = 0 */
 752               	/* stack size = 4 */
 753               	.L__stack_usage = 4
 754 0008 EC01      		movw r28,r24
 755 000a 122F      		mov r17,r18
 756 000c 0E94 0000 		call _ZN6Usart011setBaudRateENS_8BaudRateE
 757 0010 8823      		tst r24
 758 0012 01F0      		breq .L134
 759 0014 612F      		mov r22,r17
 760 0016 CE01      		movw r24,r28
 761 0018 0E94 0000 		call _ZN6Usart07setModeENS_4ModeE
 762 001c 8823      		tst r24
GAS LISTING C:\Users\Docker\AppData\Local\Temp\ccUap9II.s 			page 14


 763 001e 01F0      		breq .L134
 764 0020 602F      		mov r22,r16
 765 0022 CE01      		movw r24,r28
 766 0024 0E94 0000 		call _ZN6Usart014setFrameFormatENS_11FrameFormatE
 767 0028 8823      		tst r24
 768 002a 01F0      		breq .L134
 769 002c 80E0      		ldi r24,lo8(gs(_Z23usartTransmitStdWrappercP6__file))
 770 002e 90E0      		ldi r25,hi8(gs(_Z23usartTransmitStdWrappercP6__file))
 771 0030 9093 0000 		sts usartStream+8+1,r25
 772 0034 8093 0000 		sts usartStream+8,r24
 773 0038 1092 0000 		sts usartStream+10+1,__zero_reg__
 774 003c 1092 0000 		sts usartStream+10,__zero_reg__
 775 0040 82E0      		ldi r24,lo8(2)
 776 0042 8093 0000 		sts usartStream+3,r24
 777 0046 1092 0000 		sts usartStream+12+1,__zero_reg__
 778 004a 1092 0000 		sts usartStream+12,__zero_reg__
 779 004e 1B82      		std Y+3,__zero_reg__
 780 0050 1A82      		std Y+2,__zero_reg__
 781               	.L134:
 782               	/* epilogue start */
 783 0052 DF91      		pop r29
 784 0054 CF91      		pop r28
 785 0056 1F91      		pop r17
 786 0058 0F91      		pop r16
 787 005a 0895      		ret
 789               	.global	_ZN6Usart0C1ENS_8BaudRateENS_4ModeENS_11FrameFormatE
 790               		.set	_ZN6Usart0C1ENS_8BaudRateENS_4ModeENS_11FrameFormatE,_ZN6Usart0C2ENS_8BaudRateENS_4ModeENS_11
 791               		.section	.text._ZN6Usart018getReceptionErrorsEPNS_14ReceptionErrorE,"ax",@progbits
 792               	.global	_ZN6Usart018getReceptionErrorsEPNS_14ReceptionErrorE
 794               	_ZN6Usart018getReceptionErrorsEPNS_14ReceptionErrorE:
 795               	/* prologue: function */
 796               	/* frame size = 0 */
 797               	/* stack size = 0 */
 798               	.L__stack_usage = 0
 799 0000 DC01      		movw r26,r24
 800 0002 FB01      		movw r30,r22
 801 0004 3097      		sbiw r30,0
 802 0006 01F4      		brne .L145
 803 0008 81E1      		ldi r24,lo8(17)
 804 000a 90E0      		ldi r25,0
 805 000c 1396      		adiw r26,2+1
 806 000e 9C93      		st X,r25
 807 0010 8E93      		st -X,r24
 808 0012 1297      		sbiw r26,2
 809 0014 80E0      		ldi r24,0
 810 0016 0895      		ret
 811               	.L145:
 812 0018 1082      		st Z,__zero_reg__
 813 001a 8C91      		ld r24,X
 814 001c 80FF      		sbrs r24,0
 815 001e 00C0      		rjmp .L147
 816 0020 94E0      		ldi r25,lo8(4)
 817 0022 9083      		st Z,r25
 818               	.L147:
 819 0024 81FF      		sbrs r24,1
 820 0026 00C0      		rjmp .L148
 821 0028 9081      		ld r25,Z
GAS LISTING C:\Users\Docker\AppData\Local\Temp\ccUap9II.s 			page 15


 822 002a 9160      		ori r25,lo8(1)
 823 002c 9083      		st Z,r25
 824               	.L148:
 825 002e 82FF      		sbrs r24,2
 826 0030 00C0      		rjmp .L149
 827 0032 8081      		ld r24,Z
 828 0034 8260      		ori r24,lo8(2)
 829 0036 8083      		st Z,r24
 830               	.L149:
 831 0038 1396      		adiw r26,2+1
 832 003a 1C92      		st X,__zero_reg__
 833 003c 1E92      		st -X,__zero_reg__
 834 003e 1297      		sbiw r26,2
 835 0040 81E0      		ldi r24,lo8(1)
 836               	/* epilogue start */
 837 0042 0895      		ret
 839               		.section	.text._ZN6Usart015_receiveDataStdEP6__file,"ax",@progbits
 840               	.global	_ZN6Usart015_receiveDataStdEP6__file
 842               	_ZN6Usart015_receiveDataStdEP6__file:
 843               	/* prologue: function */
 844               	/* frame size = 0 */
 845               	/* stack size = 0 */
 846               	.L__stack_usage = 0
 847 0000 80E0      		ldi r24,0
 848               	/* epilogue start */
 849 0002 0895      		ret
 851               		.section	.text._ZN6Usart022_clearDataOverrunErrorEv,"ax",@progbits
 852               	.global	_ZN6Usart022_clearDataOverrunErrorEv
 854               	_ZN6Usart022_clearDataOverrunErrorEv:
 855               	/* prologue: function */
 856               	/* frame size = 0 */
 857               	/* stack size = 0 */
 858               	.L__stack_usage = 0
 859 0000 E0EC      		ldi r30,lo8(-64)
 860 0002 F0E0      		ldi r31,0
 861 0004 8081      		ld r24,Z
 862 0006 877F      		andi r24,lo8(-9)
 863 0008 8083      		st Z,r24
 864               	/* epilogue start */
 865 000a 0895      		ret
 867               		.section	.text._ZN6Usart016_clearFrameErrorEv,"ax",@progbits
 868               	.global	_ZN6Usart016_clearFrameErrorEv
 870               	_ZN6Usart016_clearFrameErrorEv:
 871               	/* prologue: function */
 872               	/* frame size = 0 */
 873               	/* stack size = 0 */
 874               	.L__stack_usage = 0
 875 0000 E0EC      		ldi r30,lo8(-64)
 876 0002 F0E0      		ldi r31,0
 877 0004 8081      		ld r24,Z
 878 0006 8F7E      		andi r24,lo8(-17)
 879 0008 8083      		st Z,r24
 880               	/* epilogue start */
 881 000a 0895      		ret
 883               		.section	.text._ZN6Usart017_clearParityErrorEv,"ax",@progbits
 884               	.global	_ZN6Usart017_clearParityErrorEv
 886               	_ZN6Usart017_clearParityErrorEv:
GAS LISTING C:\Users\Docker\AppData\Local\Temp\ccUap9II.s 			page 16


 887               	/* prologue: function */
 888               	/* frame size = 0 */
 889               	/* stack size = 0 */
 890               	.L__stack_usage = 0
 891 0000 E0EC      		ldi r30,lo8(-64)
 892 0002 F0E0      		ldi r31,0
 893 0004 8081      		ld r24,Z
 894 0006 8B7F      		andi r24,lo8(-5)
 895 0008 8083      		st Z,r24
 896               	/* epilogue start */
 897 000a 0895      		ret
 899               		.section	.text._ZN6Usart08sendDataEj,"ax",@progbits
 900               	.global	_ZN6Usart08sendDataEj
 902               	_ZN6Usart08sendDataEj:
 903               	/* prologue: function */
 904               	/* frame size = 0 */
 905               	/* stack size = 0 */
 906               	.L__stack_usage = 0
 907 0000 FC01      		movw r30,r24
 908 0002 9081      		ld r25,Z
 909 0004 93FB      		bst r25,3
 910 0006 8827      		clr r24
 911 0008 80F9      		bld r24,0
 912 000a 93FD      		sbrc r25,3
 913 000c 00C0      		rjmp .L164
 914 000e 24E0      		ldi r18,lo8(4)
 915 0010 30E0      		ldi r19,0
 916 0012 3383      		std Z+3,r19
 917 0014 2283      		std Z+2,r18
 918 0016 0895      		ret
 919               	.L164:
 920 0018 9091 C000 		lds r25,192
 921 001c 95FF      		sbrs r25,5
 922 001e 00C0      		rjmp .L164
 923 0020 9481      		ldd r25,Z+4
 924 0022 9730      		cpi r25,lo8(7)
 925 0024 01F4      		brne .L166
 926 0026 9091 C100 		lds r25,193
 927 002a 70FF      		sbrs r23,0
 928 002c 00C0      		rjmp .L167
 929 002e 9160      		ori r25,lo8(1)
 930               	.L171:
 931 0030 9093 C100 		sts 193,r25
 932               	.L166:
 933 0034 6093 C600 		sts 198,r22
 934 0038 1382      		std Z+3,__zero_reg__
 935 003a 1282      		std Z+2,__zero_reg__
 936               	/* epilogue start */
 937 003c 0895      		ret
 938               	.L167:
 939 003e 9E7F      		andi r25,lo8(-2)
 940 0040 00C0      		rjmp .L171
 942               		.section	.text._ZN6Usart011receiveDataEPj,"ax",@progbits
 943               	.global	_ZN6Usart011receiveDataEPj
 945               	_ZN6Usart011receiveDataEPj:
 946               	/* prologue: function */
 947               	/* frame size = 0 */
GAS LISTING C:\Users\Docker\AppData\Local\Temp\ccUap9II.s 			page 17


 948               	/* stack size = 0 */
 949               	.L__stack_usage = 0
 950 0000 FC01      		movw r30,r24
 951 0002 DB01      		movw r26,r22
 952 0004 9081      		ld r25,Z
 953 0006 93FB      		bst r25,3
 954 0008 8827      		clr r24
 955 000a 80F9      		bld r24,0
 956 000c 93FD      		sbrc r25,3
 957 000e 00C0      		rjmp .L173
 958 0010 24E0      		ldi r18,lo8(4)
 959 0012 30E0      		ldi r19,0
 960 0014 3383      		std Z+3,r19
 961 0016 2283      		std Z+2,r18
 962 0018 0895      		ret
 963               	.L173:
 964 001a 9091 C000 		lds r25,192
 965 001e 97FF      		sbrs r25,7
 966 0020 00C0      		rjmp .L173
 967 0022 2091 C000 		lds r18,192
 968 0026 9081      		ld r25,Z
 969 0028 23FB      		bst r18,3
 970 002a 90F9      		bld r25,0
 971 002c 24FB      		bst r18,4
 972 002e 91F9      		bld r25,1
 973 0030 22FB      		bst r18,2
 974 0032 92F9      		bld r25,2
 975 0034 9083      		st Z,r25
 976 0036 1196      		adiw r26,1
 977 0038 1C92      		st X,__zero_reg__
 978 003a 1E92      		st -X,__zero_reg__
 979 003c 9481      		ldd r25,Z+4
 980 003e 9730      		cpi r25,lo8(7)
 981 0040 01F4      		brne .L175
 982 0042 9091 C100 		lds r25,193
 983 0046 30E0      		ldi r19,0
 984 0048 20E0      		ldi r18,0
 985 004a 91FF      		sbrs r25,1
 986 004c 00C0      		rjmp .L176
 987 004e 20E0      		ldi r18,0
 988 0050 31E0      		ldi r19,lo8(1)
 989               	.L176:
 990 0052 1196      		adiw r26,1
 991 0054 3C93      		st X,r19
 992 0056 2E93      		st -X,r18
 993               	.L175:
 994 0058 9091 C600 		lds r25,198
 995 005c 2D91      		ld r18,X+
 996 005e 3C91      		ld r19,X
 997 0060 1197      		sbiw r26,1
 998 0062 292B      		or r18,r25
 999 0064 2D93      		st X+,r18
 1000 0066 3C93      		st X,r19
 1001 0068 1382      		std Z+3,__zero_reg__
 1002 006a 1282      		std Z+2,__zero_reg__
 1003               	/* epilogue start */
 1004 006c 0895      		ret
GAS LISTING C:\Users\Docker\AppData\Local\Temp\ccUap9II.s 			page 18


 1006               		.section	.text._ZN6Usart020flushReceptionBufferEv,"ax",@progbits
 1007               	.global	_ZN6Usart020flushReceptionBufferEv
 1009               	_ZN6Usart020flushReceptionBufferEv:
 1010               	/* prologue: function */
 1011               	/* frame size = 0 */
 1012               	/* stack size = 0 */
 1013               	.L__stack_usage = 0
 1014               	.L182:
 1015 0000 8091 C000 		lds r24,192
 1016 0004 87FF      		sbrs r24,7
 1017 0006 00C0      		rjmp .L180
 1018 0008 8091 C600 		lds r24,198
 1019 000c 00C0      		rjmp .L182
 1020               	.L180:
 1021               	/* epilogue start */
 1022 000e 0895      		ret
 1024               		.section	.text._ZN6Usart014receiveDataStdEP6__file,"ax",@progbits
 1025               	.global	_ZN6Usart014receiveDataStdEP6__file
 1027               	_ZN6Usart014receiveDataStdEP6__file:
 1028               	/* prologue: function */
 1029               	/* frame size = 0 */
 1030               	/* stack size = 0 */
 1031               	.L__stack_usage = 0
 1032               	.L184:
 1033 0000 8091 C000 		lds r24,192
 1034 0004 87FF      		sbrs r24,7
 1035 0006 00C0      		rjmp .L184
 1036 0008 8091 C600 		lds r24,198
 1037               	/* epilogue start */
 1038 000c 0895      		ret
 1040               		.section	.text._ZN6Usart011sendDataStdEcP6__file,"ax",@progbits
 1041               	.global	_ZN6Usart011sendDataStdEcP6__file
 1043               	_ZN6Usart011sendDataStdEcP6__file:
 1044               	/* prologue: function */
 1045               	/* frame size = 0 */
 1046               	/* stack size = 0 */
 1047               	.L__stack_usage = 0
 1048               	.L187:
 1049 0000 8091 C000 		lds r24,192
 1050 0004 85FF      		sbrs r24,5
 1051 0006 00C0      		rjmp .L187
 1052 0008 6093 C600 		sts 198,r22
 1053 000c 90E0      		ldi r25,0
 1054 000e 80E0      		ldi r24,0
 1055               	/* epilogue start */
 1056 0010 0895      		ret
 1058               		.section	.text._Z30usartReceptionCompleteCallbackv,"ax",@progbits
 1059               		.weak	_Z30usartReceptionCompleteCallbackv
 1061               	_Z30usartReceptionCompleteCallbackv:
 1062               	/* prologue: function */
 1063               	/* frame size = 0 */
 1064               	/* stack size = 0 */
 1065               	.L__stack_usage = 0
 1066               	/* epilogue start */
 1067 0000 0895      		ret
 1069               		.section	.text._Z36usartTransmissionBufferEmptyCallbackv,"ax",@progbits
 1070               		.weak	_Z36usartTransmissionBufferEmptyCallbackv
GAS LISTING C:\Users\Docker\AppData\Local\Temp\ccUap9II.s 			page 19


 1072               	_Z36usartTransmissionBufferEmptyCallbackv:
 1073               	/* prologue: function */
 1074               	/* frame size = 0 */
 1075               	/* stack size = 0 */
 1076               	.L__stack_usage = 0
 1077               	/* epilogue start */
 1078 0000 0895      		ret
 1080               		.section	.text._Z33usartTransmissionCompleteCallbackv,"ax",@progbits
 1081               		.weak	_Z33usartTransmissionCompleteCallbackv
 1083               	_Z33usartTransmissionCompleteCallbackv:
 1084               	/* prologue: function */
 1085               	/* frame size = 0 */
 1086               	/* stack size = 0 */
 1087               	.L__stack_usage = 0
 1088               	/* epilogue start */
 1089 0000 0895      		ret
 1091               		.section	.text.__vector_18,"ax",@progbits
 1092               	.global	__vector_18
 1094               	__vector_18:
 1095 0000 1F92      		push r1
 1096 0002 0F92      		push r0
 1097 0004 0FB6      		in r0,__SREG__
 1098 0006 0F92      		push r0
 1099 0008 1124      		clr __zero_reg__
 1100 000a 2F93      		push r18
 1101 000c 3F93      		push r19
 1102 000e 4F93      		push r20
 1103 0010 5F93      		push r21
 1104 0012 6F93      		push r22
 1105 0014 7F93      		push r23
 1106 0016 8F93      		push r24
 1107 0018 9F93      		push r25
 1108 001a AF93      		push r26
 1109 001c BF93      		push r27
 1110 001e EF93      		push r30
 1111 0020 FF93      		push r31
 1112               	/* prologue: Signal */
 1113               	/* frame size = 0 */
 1114               	/* stack size = 15 */
 1115               	.L__stack_usage = 15
 1116 0022 0E94 0000 		call _Z30usartReceptionCompleteCallbackv
 1117               	/* epilogue start */
 1118 0026 FF91      		pop r31
 1119 0028 EF91      		pop r30
 1120 002a BF91      		pop r27
 1121 002c AF91      		pop r26
 1122 002e 9F91      		pop r25
 1123 0030 8F91      		pop r24
 1124 0032 7F91      		pop r23
 1125 0034 6F91      		pop r22
 1126 0036 5F91      		pop r21
 1127 0038 4F91      		pop r20
 1128 003a 3F91      		pop r19
 1129 003c 2F91      		pop r18
 1130 003e 0F90      		pop r0
 1131 0040 0FBE      		out __SREG__,r0
 1132 0042 0F90      		pop r0
GAS LISTING C:\Users\Docker\AppData\Local\Temp\ccUap9II.s 			page 20


 1133 0044 1F90      		pop r1
 1134 0046 1895      		reti
 1136               		.section	.text.__vector_20,"ax",@progbits
 1137               	.global	__vector_20
 1139               	__vector_20:
 1140 0000 1F92      		push r1
 1141 0002 0F92      		push r0
 1142 0004 0FB6      		in r0,__SREG__
 1143 0006 0F92      		push r0
 1144 0008 1124      		clr __zero_reg__
 1145 000a 2F93      		push r18
 1146 000c 3F93      		push r19
 1147 000e 4F93      		push r20
 1148 0010 5F93      		push r21
 1149 0012 6F93      		push r22
 1150 0014 7F93      		push r23
 1151 0016 8F93      		push r24
 1152 0018 9F93      		push r25
 1153 001a AF93      		push r26
 1154 001c BF93      		push r27
 1155 001e EF93      		push r30
 1156 0020 FF93      		push r31
 1157               	/* prologue: Signal */
 1158               	/* frame size = 0 */
 1159               	/* stack size = 15 */
 1160               	.L__stack_usage = 15
 1161 0022 0E94 0000 		call _Z33usartTransmissionCompleteCallbackv
 1162               	/* epilogue start */
 1163 0026 FF91      		pop r31
 1164 0028 EF91      		pop r30
 1165 002a BF91      		pop r27
 1166 002c AF91      		pop r26
 1167 002e 9F91      		pop r25
 1168 0030 8F91      		pop r24
 1169 0032 7F91      		pop r23
 1170 0034 6F91      		pop r22
 1171 0036 5F91      		pop r21
 1172 0038 4F91      		pop r20
 1173 003a 3F91      		pop r19
 1174 003c 2F91      		pop r18
 1175 003e 0F90      		pop r0
 1176 0040 0FBE      		out __SREG__,r0
 1177 0042 0F90      		pop r0
 1178 0044 1F90      		pop r1
 1179 0046 1895      		reti
 1181               		.section	.text.__vector_19,"ax",@progbits
 1182               	.global	__vector_19
 1184               	__vector_19:
 1185 0000 1F92      		push r1
 1186 0002 0F92      		push r0
 1187 0004 0FB6      		in r0,__SREG__
 1188 0006 0F92      		push r0
 1189 0008 1124      		clr __zero_reg__
 1190 000a 2F93      		push r18
 1191 000c 3F93      		push r19
 1192 000e 4F93      		push r20
 1193 0010 5F93      		push r21
GAS LISTING C:\Users\Docker\AppData\Local\Temp\ccUap9II.s 			page 21


 1194 0012 6F93      		push r22
 1195 0014 7F93      		push r23
 1196 0016 8F93      		push r24
 1197 0018 9F93      		push r25
 1198 001a AF93      		push r26
 1199 001c BF93      		push r27
 1200 001e EF93      		push r30
 1201 0020 FF93      		push r31
 1202               	/* prologue: Signal */
 1203               	/* frame size = 0 */
 1204               	/* stack size = 15 */
 1205               	.L__stack_usage = 15
 1206 0022 0E94 0000 		call _Z36usartTransmissionBufferEmptyCallbackv
 1207               	/* epilogue start */
 1208 0026 FF91      		pop r31
 1209 0028 EF91      		pop r30
 1210 002a BF91      		pop r27
 1211 002c AF91      		pop r26
 1212 002e 9F91      		pop r25
 1213 0030 8F91      		pop r24
 1214 0032 7F91      		pop r23
 1215 0034 6F91      		pop r22
 1216 0036 5F91      		pop r21
 1217 0038 4F91      		pop r20
 1218 003a 3F91      		pop r19
 1219 003c 2F91      		pop r18
 1220 003e 0F90      		pop r0
 1221 0040 0FBE      		out __SREG__,r0
 1222 0042 0F90      		pop r0
 1223 0044 1F90      		pop r1
 1224 0046 1895      		reti
 1226               		.section	.text.startup._GLOBAL__sub_I_usartDefaultHandler,"ax",@progbits
 1228               	_GLOBAL__sub_I_usartDefaultHandler:
 1229 0000 0F93      		push r16
 1230               	/* prologue: function */
 1231               	/* frame size = 0 */
 1232               	/* stack size = 1 */
 1233               	.L__stack_usage = 1
 1234 0002 01E8      		ldi r16,lo8(-127)
 1235 0004 20E0      		ldi r18,0
 1236 0006 40E8      		ldi r20,lo8(-128)
 1237 0008 55E2      		ldi r21,lo8(37)
 1238 000a 60E0      		ldi r22,0
 1239 000c 70E0      		ldi r23,0
 1240 000e 80E0      		ldi r24,lo8(usart0)
 1241 0010 90E0      		ldi r25,hi8(usart0)
 1242 0012 0E94 0000 		call _ZN6Usart0C1ENS_8BaudRateENS_4ModeENS_11FrameFormatE
 1243               	/* epilogue start */
 1244 0016 0F91      		pop r16
 1245 0018 0895      		ret
 1247               		.global __do_global_ctors
 1248               		.section .ctors,"a",@progbits
 1249               		.p2align	1
 1250 0000 0000      		.word	gs(_GLOBAL__sub_I_usartDefaultHandler)
 1251               	.global	usartStream
 1252               		.section	.bss.usartStream,"aw",@nobits
 1255               	usartStream:
GAS LISTING C:\Users\Docker\AppData\Local\Temp\ccUap9II.s 			page 22


 1256 0000 0000 0000 		.zero	14
 1256      0000 0000 
 1256      0000 0000 
 1256      0000 
 1257               	.global	usart0
 1258               		.section	.bss.usart0,"aw",@nobits
 1261               	usart0:
 1262 0000 0000 0000 		.zero	12
 1262      0000 0000 
 1262      0000 0000 
 1263               	.global	usartDefaultHandler
 1264               		.section	.bss.usartDefaultHandler,"aw",@nobits
 1267               	usartDefaultHandler:
 1268 0000 0000      		.zero	2
 1269               		.ident	"GCC: (AVR_8_bit_GNU_Toolchain_3.7.0_1796) 7.3.0"
 1270               	.global __do_clear_bss
GAS LISTING C:\Users\Docker\AppData\Local\Temp\ccUap9II.s 			page 23


DEFINED SYMBOLS
                            *ABS*:0000000000000000 funsapeLibUsart0.cpp
C:\Users\Docker\AppData\Local\Temp\ccUap9II.s:2      *ABS*:000000000000003e __SP_H__
C:\Users\Docker\AppData\Local\Temp\ccUap9II.s:3      *ABS*:000000000000003d __SP_L__
C:\Users\Docker\AppData\Local\Temp\ccUap9II.s:4      *ABS*:000000000000003f __SREG__
C:\Users\Docker\AppData\Local\Temp\ccUap9II.s:5      *ABS*:0000000000000000 __tmp_reg__
C:\Users\Docker\AppData\Local\Temp\ccUap9II.s:6      *ABS*:0000000000000001 __zero_reg__
C:\Users\Docker\AppData\Local\Temp\ccUap9II.s:11     .text._Z23usartTransmitStdWrappercP6__file:0000000000000000 _Z23usartTransmitStdWrappercP6__file
C:\Users\Docker\AppData\Local\Temp\ccUap9II.s:29     .text._Z7getTickv:0000000000000000 _Z7getTickv
C:\Users\Docker\AppData\Local\Temp\ccUap9II.s:43     .text._ZN6Usart0D2Ev:0000000000000000 _ZN6Usart0D2Ev
C:\Users\Docker\AppData\Local\Temp\ccUap9II.s:43     .text._ZN6Usart0D2Ev:0000000000000000 _ZN6Usart0D1Ev
C:\Users\Docker\AppData\Local\Temp\ccUap9II.s:56     .text._ZN6Usart04initEv:0000000000000000 _ZN6Usart04initEv
C:\Users\Docker\AppData\Local\Temp\ccUap9II.s:282    .text._ZN6Usart07setModeENS_4ModeE:0000000000000000 _ZN6Usart07setModeENS_4ModeE
C:\Users\Docker\AppData\Local\Temp\ccUap9II.s:310    .text._ZN6Usart011setDataSizeENS_8DataSizeE:0000000000000000 _ZN6Usart011setDataSizeENS_8DataSizeE
C:\Users\Docker\AppData\Local\Temp\ccUap9II.s:340    .text._ZN6Usart011setStopBitsENS_8StopBitsE:0000000000000000 _ZN6Usart011setStopBitsENS_8StopBitsE
C:\Users\Docker\AppData\Local\Temp\ccUap9II.s:368    .text._ZN6Usart013setParityModeENS_10ParityModeE:0000000000000000 _ZN6Usart013setParityModeENS_10ParityModeE
C:\Users\Docker\AppData\Local\Temp\ccUap9II.s:396    .text._ZN6Usart011setBaudRateENS_8BaudRateE:0000000000000000 _ZN6Usart011setBaudRateENS_8BaudRateE
C:\Users\Docker\AppData\Local\Temp\ccUap9II.s:540    .text._ZN6Usart014setFrameFormatENS_11FrameFormatE:0000000000000000 _ZN6Usart014setFrameFormatENS_11FrameFormatE
C:\Users\Docker\AppData\Local\Temp\ccUap9II.s:745    .text._ZN6Usart0C2ENS_8BaudRateENS_4ModeENS_11FrameFormatE:0000000000000000 _ZN6Usart0C2ENS_8BaudRateENS_4ModeENS_11FrameFormatE
C:\Users\Docker\AppData\Local\Temp\ccUap9II.s:1255   .bss.usartStream:0000000000000000 usartStream
C:\Users\Docker\AppData\Local\Temp\ccUap9II.s:745    .text._ZN6Usart0C2ENS_8BaudRateENS_4ModeENS_11FrameFormatE:0000000000000000 _ZN6Usart0C1ENS_8BaudRateENS_4ModeENS_11FrameFormatE
C:\Users\Docker\AppData\Local\Temp\ccUap9II.s:794    .text._ZN6Usart018getReceptionErrorsEPNS_14ReceptionErrorE:0000000000000000 _ZN6Usart018getReceptionErrorsEPNS_14ReceptionErrorE
C:\Users\Docker\AppData\Local\Temp\ccUap9II.s:842    .text._ZN6Usart015_receiveDataStdEP6__file:0000000000000000 _ZN6Usart015_receiveDataStdEP6__file
C:\Users\Docker\AppData\Local\Temp\ccUap9II.s:854    .text._ZN6Usart022_clearDataOverrunErrorEv:0000000000000000 _ZN6Usart022_clearDataOverrunErrorEv
C:\Users\Docker\AppData\Local\Temp\ccUap9II.s:870    .text._ZN6Usart016_clearFrameErrorEv:0000000000000000 _ZN6Usart016_clearFrameErrorEv
C:\Users\Docker\AppData\Local\Temp\ccUap9II.s:886    .text._ZN6Usart017_clearParityErrorEv:0000000000000000 _ZN6Usart017_clearParityErrorEv
C:\Users\Docker\AppData\Local\Temp\ccUap9II.s:902    .text._ZN6Usart08sendDataEj:0000000000000000 _ZN6Usart08sendDataEj
C:\Users\Docker\AppData\Local\Temp\ccUap9II.s:945    .text._ZN6Usart011receiveDataEPj:0000000000000000 _ZN6Usart011receiveDataEPj
C:\Users\Docker\AppData\Local\Temp\ccUap9II.s:1009   .text._ZN6Usart020flushReceptionBufferEv:0000000000000000 _ZN6Usart020flushReceptionBufferEv
C:\Users\Docker\AppData\Local\Temp\ccUap9II.s:1027   .text._ZN6Usart014receiveDataStdEP6__file:0000000000000000 _ZN6Usart014receiveDataStdEP6__file
C:\Users\Docker\AppData\Local\Temp\ccUap9II.s:1043   .text._ZN6Usart011sendDataStdEcP6__file:0000000000000000 _ZN6Usart011sendDataStdEcP6__file
C:\Users\Docker\AppData\Local\Temp\ccUap9II.s:1061   .text._Z30usartReceptionCompleteCallbackv:0000000000000000 _Z30usartReceptionCompleteCallbackv
C:\Users\Docker\AppData\Local\Temp\ccUap9II.s:1072   .text._Z36usartTransmissionBufferEmptyCallbackv:0000000000000000 _Z36usartTransmissionBufferEmptyCallbackv
C:\Users\Docker\AppData\Local\Temp\ccUap9II.s:1083   .text._Z33usartTransmissionCompleteCallbackv:0000000000000000 _Z33usartTransmissionCompleteCallbackv
C:\Users\Docker\AppData\Local\Temp\ccUap9II.s:1094   .text.__vector_18:0000000000000000 __vector_18
C:\Users\Docker\AppData\Local\Temp\ccUap9II.s:1139   .text.__vector_20:0000000000000000 __vector_20
C:\Users\Docker\AppData\Local\Temp\ccUap9II.s:1184   .text.__vector_19:0000000000000000 __vector_19
C:\Users\Docker\AppData\Local\Temp\ccUap9II.s:1228   .text.startup._GLOBAL__sub_I_usartDefaultHandler:0000000000000000 _GLOBAL__sub_I_usartDefaultHandler
C:\Users\Docker\AppData\Local\Temp\ccUap9II.s:1261   .bss.usart0:0000000000000000 usart0
C:\Users\Docker\AppData\Local\Temp\ccUap9II.s:1267   .bss.usartDefaultHandler:0000000000000000 usartDefaultHandler

UNDEFINED SYMBOLS
__tablejump2__
systemStatus
_ZN12SystemStatus11getCpuClockEPm
__muluhisi3
__udivmodsi4
__lshrdi3
__do_global_ctors
__do_clear_bss
