GAS LISTING C:\Users\Aluno\AppData\Local\Temp\ccp3tIRI.s 			page 1


   1               		.file	"funsapeLibHd44780.cpp"
   2               	__SP_H__ = 0x3e
   3               	__SP_L__ = 0x3d
   4               	__SREG__ = 0x3f
   5               	__tmp_reg__ = 0
   6               	__zero_reg__ = 1
   7               		.text
   8               		.section	.text._Z7getTickv,"ax",@progbits
   9               		.weak	_Z7getTickv
  11               	_Z7getTickv:
  12               	/* prologue: function */
  13               	/* frame size = 0 */
  14               	/* stack size = 0 */
  15               	.L__stack_usage = 0
  16 0000 60E0      		ldi r22,0
  17 0002 70E0      		ldi r23,0
  18 0004 CB01      		movw r24,r22
  19               	/* epilogue start */
  20 0006 0895      		ret
  22               		.section	.text._ZN7Hd44780C2Ev,"ax",@progbits
  23               	.global	_ZN7Hd44780C2Ev
  25               	_ZN7Hd44780C2Ev:
  26               	/* prologue: function */
  27               	/* frame size = 0 */
  28               	/* stack size = 0 */
  29               	.L__stack_usage = 0
  30 0000 FC01      		movw r30,r24
  31 0002 A0E0      		ldi r26,lo8(lcdStream)
  32 0004 B0E0      		ldi r27,hi8(lcdStream)
  33 0006 80E0      		ldi r24,lo8(gs(_ZL11lcdWriteStdcP6__file))
  34 0008 90E0      		ldi r25,hi8(gs(_ZL11lcdWriteStdcP6__file))
  35 000a 1996      		adiw r26,8+1
  36 000c 9C93      		st X,r25
  37 000e 8E93      		st -X,r24
  38 0010 1897      		sbiw r26,8
  39 0012 1B96      		adiw r26,10+1
  40 0014 1C92      		st X,__zero_reg__
  41 0016 1E92      		st -X,__zero_reg__
  42 0018 1A97      		sbiw r26,10
  43 001a 82E0      		ldi r24,lo8(2)
  44 001c 1396      		adiw r26,3
  45 001e 8C93      		st X,r24
  46 0020 1397      		sbiw r26,3
  47 0022 1D96      		adiw r26,12+1
  48 0024 1C92      		st X,__zero_reg__
  49 0026 1E92      		st -X,__zero_reg__
  50 0028 1C97      		sbiw r26,12
  51 002a 1182      		std Z+1,__zero_reg__
  52 002c 1082      		st Z,__zero_reg__
  53 002e 1382      		std Z+3,__zero_reg__
  54 0030 1282      		std Z+2,__zero_reg__
  55 0032 1582      		std Z+5,__zero_reg__
  56 0034 1482      		std Z+4,__zero_reg__
  57 0036 1782      		std Z+7,__zero_reg__
  58 0038 1682      		std Z+6,__zero_reg__
  59 003a 8385      		ldd r24,Z+11
  60 003c 8078      		andi r24,lo8(-128)
GAS LISTING C:\Users\Aluno\AppData\Local\Temp\ccp3tIRI.s 			page 2


  61 003e 8062      		ori r24,lo8(32)
  62 0040 8F77      		andi r24,lo8(~(1<<7))
  63 0042 8387      		std Z+11,r24
  64 0044 1586      		std Z+13,__zero_reg__
  65 0046 1486      		std Z+12,__zero_reg__
  66 0048 8085      		ldd r24,Z+8
  67 004a 887F      		andi r24,lo8(-8)
  68 004c 877F      		andi r24,lo8(~(1<<3))
  69 004e 8087      		std Z+8,r24
  70 0050 1286      		std Z+10,__zero_reg__
  71 0052 1186      		std Z+9,__zero_reg__
  72               	/* epilogue start */
  73 0054 0895      		ret
  75               	.global	_ZN7Hd44780C1Ev
  76               		.set	_ZN7Hd44780C1Ev,_ZN7Hd44780C2Ev
  77               		.section	.text._ZN7Hd44780D2Ev,"ax",@progbits
  78               	.global	_ZN7Hd44780D2Ev
  80               	_ZN7Hd44780D2Ev:
  81               	/* prologue: function */
  82               	/* frame size = 0 */
  83               	/* stack size = 0 */
  84               	.L__stack_usage = 0
  85               	/* epilogue start */
  86 0000 0895      		ret
  88               	.global	_ZN7Hd44780D1Ev
  89               		.set	_ZN7Hd44780D1Ev,_ZN7Hd44780D2Ev
  90               		.section	.text._ZN7Hd4478014setControlPortEPK7GpioPinS2_S2_,"ax",@progbits
  91               	.global	_ZN7Hd4478014setControlPortEPK7GpioPinS2_S2_
  93               	_ZN7Hd4478014setControlPortEPK7GpioPinS2_S2_:
  94               	/* prologue: function */
  95               	/* frame size = 0 */
  96               	/* stack size = 0 */
  97               	.L__stack_usage = 0
  98 0000 FC01      		movw r30,r24
  99 0002 8085      		ldd r24,Z+8
 100 0004 8B7F      		andi r24,lo8(-5)
 101 0006 8D7F      		andi r24,lo8(~(1<<1))
 102 0008 8087      		std Z+8,r24
 103 000a 6115      		cp r22,__zero_reg__
 104 000c 7105      		cpc r23,__zero_reg__
 105 000e 01F0      		breq .L5
 106 0010 4115      		cp r20,__zero_reg__
 107 0012 5105      		cpc r21,__zero_reg__
 108 0014 01F4      		brne .L6
 109               	.L5:
 110 0016 83ED      		ldi r24,lo8(-45)
 111 0018 90E0      		ldi r25,0
 112               	.L21:
 113 001a 9287      		std Z+10,r25
 114 001c 8187      		std Z+9,r24
 115 001e 80E0      		ldi r24,0
 116 0020 0895      		ret
 117               	.L6:
 118 0022 DB01      		movw r26,r22
 119 0024 1896      		adiw r26,8
 120 0026 8C91      		ld r24,X
 121 0028 80FD      		sbrc r24,0
GAS LISTING C:\Users\Aluno\AppData\Local\Temp\ccp3tIRI.s 			page 3


 122 002a 00C0      		rjmp .L8
 123               	.L9:
 124 002c 8CED      		ldi r24,lo8(-36)
 125 002e 90E0      		ldi r25,0
 126 0030 00C0      		rjmp .L21
 127               	.L8:
 128 0032 DA01      		movw r26,r20
 129 0034 1896      		adiw r26,8
 130 0036 9C91      		ld r25,X
 131 0038 892F      		mov r24,r25
 132 003a 8170      		andi r24,1
 133 003c 90FF      		sbrs r25,0
 134 003e 00C0      		rjmp .L9
 135 0040 2115      		cp r18,__zero_reg__
 136 0042 3105      		cpc r19,__zero_reg__
 137 0044 01F0      		breq .L11
 138 0046 D901      		movw r26,r18
 139 0048 1896      		adiw r26,8
 140 004a 9C91      		ld r25,X
 141 004c A92F      		mov r26,r25
 142 004e A170      		andi r26,1
 143 0050 90FF      		sbrs r25,0
 144 0052 00C0      		rjmp .L9
 145               	.L10:
 146 0054 7183      		std Z+1,r23
 147 0056 6083      		st Z,r22
 148 0058 5383      		std Z+3,r21
 149 005a 4283      		std Z+2,r20
 150 005c 3583      		std Z+5,r19
 151 005e 2483      		std Z+4,r18
 152 0060 9385      		ldd r25,Z+11
 153 0062 A0FB      		bst r26,0
 154 0064 91F9      		bld r25,1
 155 0066 9387      		std Z+11,r25
 156 0068 9085      		ldd r25,Z+8
 157 006a 9460      		ori r25,lo8(1<<2)
 158 006c 9087      		std Z+8,r25
 159 006e 1286      		std Z+10,__zero_reg__
 160 0070 1186      		std Z+9,__zero_reg__
 161               	/* epilogue start */
 162 0072 0895      		ret
 163               	.L11:
 164 0074 A0E0      		ldi r26,0
 165 0076 00C0      		rjmp .L10
 167               		.section	.text._ZN7Hd4478011setDataPortEPK7GpioBus,"ax",@progbits
 168               	.global	_ZN7Hd4478011setDataPortEPK7GpioBus
 170               	_ZN7Hd4478011setDataPortEPK7GpioBus:
 171 0000 FF92      		push r15
 172 0002 0F93      		push r16
 173 0004 1F93      		push r17
 174 0006 CF93      		push r28
 175 0008 DF93      		push r29
 176               	/* prologue: function */
 177               	/* frame size = 0 */
 178               	/* stack size = 5 */
 179               	.L__stack_usage = 5
 180 000a EC01      		movw r28,r24
GAS LISTING C:\Users\Aluno\AppData\Local\Temp\ccp3tIRI.s 			page 4


 181 000c 8885      		ldd r24,Y+8
 182 000e 877F      		andi r24,lo8(-9)
 183 0010 8D7F      		andi r24,lo8(~(1<<1))
 184 0012 8887      		std Y+8,r24
 185 0014 83ED      		ldi r24,lo8(-45)
 186 0016 90E0      		ldi r25,0
 187 0018 6115      		cp r22,__zero_reg__
 188 001a 7105      		cpc r23,__zero_reg__
 189 001c 01F0      		breq .L31
 190 001e FB01      		movw r30,r22
 191 0020 8781      		ldd r24,Z+7
 192 0022 80FB      		bst r24,0
 193 0024 FF24      		clr r15
 194 0026 F0F8      		bld r15,0
 195 0028 80FD      		sbrc r24,0
 196 002a 00C0      		rjmp .L25
 197 002c 8CED      		ldi r24,lo8(-36)
 198 002e 90E0      		ldi r25,0
 199 0030 9A87      		std Y+10,r25
 200 0032 8987      		std Y+9,r24
 201               	.L22:
 202 0034 8F2D      		mov r24,r15
 203               	/* epilogue start */
 204 0036 DF91      		pop r29
 205 0038 CF91      		pop r28
 206 003a 1F91      		pop r17
 207 003c 0F91      		pop r16
 208 003e FF90      		pop r15
 209 0040 0895      		ret
 210               	.L25:
 211 0042 8B01      		movw r16,r22
 212 0044 CB01      		movw r24,r22
 213 0046 0E94 0000 		call _ZN7GpioBus10getBusSizeEv
 214 004a 8430      		cpi r24,lo8(4)
 215 004c 01F0      		breq .L29
 216 004e 90E0      		ldi r25,0
 217 0050 8830      		cpi r24,lo8(8)
 218 0052 01F0      		breq .L27
 219 0054 8BED      		ldi r24,lo8(-37)
 220 0056 90E0      		ldi r25,0
 221               	.L31:
 222 0058 9A87      		std Y+10,r25
 223 005a 8987      		std Y+9,r24
 224 005c F12C      		mov r15,__zero_reg__
 225 005e 00C0      		rjmp .L22
 226               	.L29:
 227 0060 9F2D      		mov r25,r15
 228               	.L27:
 229 0062 1F83      		std Y+7,r17
 230 0064 0E83      		std Y+6,r16
 231 0066 8B85      		ldd r24,Y+11
 232 0068 90FB      		bst r25,0
 233 006a 80F9      		bld r24,0
 234 006c 8B87      		std Y+11,r24
 235 006e 8885      		ldd r24,Y+8
 236 0070 8860      		ori r24,lo8(1<<3)
 237 0072 8887      		std Y+8,r24
GAS LISTING C:\Users\Aluno\AppData\Local\Temp\ccp3tIRI.s 			page 5


 238 0074 1A86      		std Y+10,__zero_reg__
 239 0076 1986      		std Y+9,__zero_reg__
 240 0078 00C0      		rjmp .L22
 242               		.section	.text._ZN7Hd447805stdioEv,"ax",@progbits
 243               	.global	_ZN7Hd447805stdioEv
 245               	_ZN7Hd447805stdioEv:
 246               	/* prologue: function */
 247               	/* frame size = 0 */
 248               	/* stack size = 0 */
 249               	.L__stack_usage = 0
 250 0000 E0E0      		ldi r30,lo8(__iob)
 251 0002 F0E0      		ldi r31,hi8(__iob)
 252 0004 20E0      		ldi r18,lo8(lcdStream)
 253 0006 30E0      		ldi r19,hi8(lcdStream)
 254 0008 3583      		std Z+5,r19
 255 000a 2483      		std Z+4,r18
 256 000c 3383      		std Z+3,r19
 257 000e 2283      		std Z+2,r18
 258 0010 3183      		std Z+1,r19
 259 0012 2083      		st Z,r18
 260 0014 9093 0000 		sts defaultDisplay+1,r25
 261 0018 8093 0000 		sts defaultDisplay,r24
 262 001c FC01      		movw r30,r24
 263 001e 1286      		std Z+10,__zero_reg__
 264 0020 1186      		std Z+9,__zero_reg__
 265 0022 81E0      		ldi r24,lo8(1)
 266               	/* epilogue start */
 267 0024 0895      		ret
 269               		.section	.text._ZN7Hd4478012getLastErrorEv,"ax",@progbits
 270               	.global	_ZN7Hd4478012getLastErrorEv
 272               	_ZN7Hd4478012getLastErrorEv:
 273               	/* prologue: function */
 274               	/* frame size = 0 */
 275               	/* stack size = 0 */
 276               	.L__stack_usage = 0
 277 0000 FC01      		movw r30,r24
 278 0002 8185      		ldd r24,Z+9
 279 0004 9285      		ldd r25,Z+10
 280               	/* epilogue start */
 281 0006 0895      		ret
 283               		.section	.text._ZN7Hd4478017_functionSet8BitsEh,"ax",@progbits
 284               	.global	_ZN7Hd4478017_functionSet8BitsEh
 286               	_ZN7Hd4478017_functionSet8BitsEh:
 287 0000 CF93      		push r28
 288 0002 DF93      		push r29
 289               	/* prologue: function */
 290               	/* frame size = 0 */
 291               	/* stack size = 2 */
 292               	.L__stack_usage = 2
 293 0004 EC01      		movw r28,r24
 294 0006 8B85      		ldd r24,Y+11
 295 0008 81FF      		sbrs r24,1
 296 000a 00C0      		rjmp .L35
 297 000c AC81      		ldd r26,Y+4
 298 000e BD81      		ldd r27,Y+5
 299 0010 1296      		adiw r26,2
 300 0012 ED91      		ld r30,X+
GAS LISTING C:\Users\Aluno\AppData\Local\Temp\ccp3tIRI.s 			page 6


 301 0014 FC91      		ld r31,X
 302 0016 1397      		sbiw r26,2+1
 303 0018 9081      		ld r25,Z
 304 001a 1696      		adiw r26,6
 305 001c 8C91      		ld r24,X
 306 001e 8095      		com r24
 307 0020 8923      		and r24,r25
 308 0022 8083      		st Z,r24
 309               	.L35:
 310 0024 AA81      		ldd r26,Y+2
 311 0026 BB81      		ldd r27,Y+3
 312 0028 1296      		adiw r26,2
 313 002a ED91      		ld r30,X+
 314 002c FC91      		ld r31,X
 315 002e 1397      		sbiw r26,2+1
 316 0030 9081      		ld r25,Z
 317 0032 1696      		adiw r26,6
 318 0034 8C91      		ld r24,X
 319 0036 8095      		com r24
 320 0038 8923      		and r24,r25
 321 003a 8083      		st Z,r24
 322 003c A881      		ld r26,Y
 323 003e B981      		ldd r27,Y+1
 324 0040 1296      		adiw r26,2
 325 0042 ED91      		ld r30,X+
 326 0044 FC91      		ld r31,X
 327 0046 1397      		sbiw r26,2+1
 328 0048 9081      		ld r25,Z
 329 004a 1696      		adiw r26,6
 330 004c 8C91      		ld r24,X
 331 004e 8095      		com r24
 332 0050 8923      		and r24,r25
 333 0052 8083      		st Z,r24
 334 0054 70E0      		ldi r23,0
 335 0056 84E0      		ldi r24,4
 336               		1:
 337 0058 7595      		asr r23
 338 005a 6795      		ror r22
 339 005c 8A95      		dec r24
 340 005e 01F4      		brne 1b
 341 0060 8E81      		ldd r24,Y+6
 342 0062 9F81      		ldd r25,Y+7
 343 0064 0E94 0000 		call _ZN7GpioBus5writeEh
 344 0068 A881      		ld r26,Y
 345 006a B981      		ldd r27,Y+1
 346 006c 1296      		adiw r26,2
 347 006e ED91      		ld r30,X+
 348 0070 FC91      		ld r31,X
 349 0072 1397      		sbiw r26,2+1
 350 0074 8081      		ld r24,Z
 351 0076 1696      		adiw r26,6
 352 0078 9C91      		ld r25,X
 353 007a 892B      		or r24,r25
 354 007c 8083      		st Z,r24
 355 007e 85E0      		ldi r24,lo8(5)
 356 0080 8A95      	1:	dec r24
 357 0082 01F4      		brne 1b
GAS LISTING C:\Users\Aluno\AppData\Local\Temp\ccp3tIRI.s 			page 7


 358 0084 0000      		nop
 359 0086 A881      		ld r26,Y
 360 0088 B981      		ldd r27,Y+1
 361 008a 1296      		adiw r26,2
 362 008c ED91      		ld r30,X+
 363 008e FC91      		ld r31,X
 364 0090 1397      		sbiw r26,2+1
 365 0092 9081      		ld r25,Z
 366 0094 1696      		adiw r26,6
 367 0096 8C91      		ld r24,X
 368 0098 8095      		com r24
 369 009a 8923      		and r24,r25
 370 009c 8083      		st Z,r24
 371 009e 85E0      		ldi r24,lo8(5)
 372 00a0 8A95      	1:	dec r24
 373 00a2 01F4      		brne 1b
 374 00a4 0000      		nop
 375 00a6 8B85      		ldd r24,Y+11
 376 00a8 81FF      		sbrs r24,1
 377 00aa 00C0      		rjmp .L36
 378 00ac 8885      		ldd r24,Y+8
 379 00ae 80FD      		sbrc r24,0
 380 00b0 00C0      		rjmp .L37
 381               	.L36:
 382 00b2 85ED      		ldi r24,lo8(-43)
 383 00b4 8A95      	1:	dec r24
 384 00b6 01F4      		brne 1b
 385 00b8 0000      		nop
 386               	.L37:
 387 00ba 81E0      		ldi r24,lo8(1)
 388               	/* epilogue start */
 389 00bc DF91      		pop r29
 390 00be CF91      		pop r28
 391 00c0 0895      		ret
 393               		.section	.text._ZN7Hd4478015_waitUntilReadyEv,"ax",@progbits
 394               	.global	_ZN7Hd4478015_waitUntilReadyEv
 396               	_ZN7Hd4478015_waitUntilReadyEv:
 397 0000 CF93      		push r28
 398 0002 DF93      		push r29
 399               	/* prologue: function */
 400               	/* frame size = 0 */
 401               	/* stack size = 2 */
 402               	.L__stack_usage = 2
 403 0004 EC01      		movw r28,r24
 404 0006 61E0      		ldi r22,lo8(1)
 405 0008 8E81      		ldd r24,Y+6
 406 000a 9F81      		ldd r25,Y+7
 407 000c 0E94 0000 		call _ZN7GpioBus7setModeENS_4ModeE
 408 0010 AA81      		ldd r26,Y+2
 409 0012 BB81      		ldd r27,Y+3
 410 0014 1296      		adiw r26,2
 411 0016 ED91      		ld r30,X+
 412 0018 FC91      		ld r31,X
 413 001a 1397      		sbiw r26,2+1
 414 001c 9081      		ld r25,Z
 415 001e 1696      		adiw r26,6
 416 0020 8C91      		ld r24,X
GAS LISTING C:\Users\Aluno\AppData\Local\Temp\ccp3tIRI.s 			page 8


 417 0022 8095      		com r24
 418 0024 8923      		and r24,r25
 419 0026 8083      		st Z,r24
 420 0028 AC81      		ldd r26,Y+4
 421 002a BD81      		ldd r27,Y+5
 422 002c 1296      		adiw r26,2
 423 002e ED91      		ld r30,X+
 424 0030 FC91      		ld r31,X
 425 0032 1397      		sbiw r26,2+1
 426 0034 8081      		ld r24,Z
 427 0036 1696      		adiw r26,6
 428 0038 9C91      		ld r25,X
 429 003a 892B      		or r24,r25
 430 003c 8083      		st Z,r24
 431 003e A881      		ld r26,Y
 432 0040 B981      		ldd r27,Y+1
 433 0042 1296      		adiw r26,2
 434 0044 ED91      		ld r30,X+
 435 0046 FC91      		ld r31,X
 436 0048 1397      		sbiw r26,2+1
 437 004a 9081      		ld r25,Z
 438 004c 1696      		adiw r26,6
 439 004e 8C91      		ld r24,X
 440 0050 8095      		com r24
 441 0052 8923      		and r24,r25
 442 0054 8083      		st Z,r24
 443               	.L47:
 444 0056 A881      		ld r26,Y
 445 0058 B981      		ldd r27,Y+1
 446 005a 1296      		adiw r26,2
 447 005c ED91      		ld r30,X+
 448 005e FC91      		ld r31,X
 449 0060 1397      		sbiw r26,2+1
 450 0062 8081      		ld r24,Z
 451 0064 1696      		adiw r26,6
 452 0066 9C91      		ld r25,X
 453 0068 892B      		or r24,r25
 454 006a 8083      		st Z,r24
 455 006c 85E0      		ldi r24,lo8(5)
 456 006e 8A95      	1:	dec r24
 457 0070 01F4      		brne 1b
 458 0072 0000      		nop
 459 0074 EE81      		ldd r30,Y+6
 460 0076 FF81      		ldd r31,Y+7
 461 0078 A481      		ldd r26,Z+4
 462 007a B581      		ldd r27,Z+5
 463 007c 8C91      		ld r24,X
 464 007e 9681      		ldd r25,Z+6
 465 0080 8923      		and r24,r25
 466 0082 90E0      		ldi r25,0
 467 0084 2385      		ldd r18,Z+11
 468 0086 00C0      		rjmp 2f
 469               		1:
 470 0088 9595      		asr r25
 471 008a 8795      		ror r24
 472               		2:
 473 008c 2A95      		dec r18
GAS LISTING C:\Users\Aluno\AppData\Local\Temp\ccp3tIRI.s 			page 9


 474 008e 02F4      		brpl 1b
 475 0090 2B85      		ldd r18,Y+11
 476 0092 20FF      		sbrs r18,0
 477 0094 00C0      		rjmp .L45
 478 0096 8870      		andi r24,lo8(8)
 479 0098 A881      		ld r26,Y
 480 009a B981      		ldd r27,Y+1
 481 009c 1296      		adiw r26,2
 482 009e ED91      		ld r30,X+
 483 00a0 FC91      		ld r31,X
 484 00a2 1397      		sbiw r26,2+1
 485 00a4 2081      		ld r18,Z
 486 00a6 1696      		adiw r26,6
 487 00a8 9C91      		ld r25,X
 488 00aa 9095      		com r25
 489 00ac 9223      		and r25,r18
 490 00ae 9083      		st Z,r25
 491 00b0 95E0      		ldi r25,lo8(5)
 492 00b2 9A95      	1:	dec r25
 493 00b4 01F4      		brne 1b
 494 00b6 0000      		nop
 495 00b8 A881      		ld r26,Y
 496 00ba B981      		ldd r27,Y+1
 497 00bc 1296      		adiw r26,2
 498 00be ED91      		ld r30,X+
 499 00c0 FC91      		ld r31,X
 500 00c2 1397      		sbiw r26,2+1
 501 00c4 9081      		ld r25,Z
 502 00c6 1696      		adiw r26,6
 503 00c8 2C91      		ld r18,X
 504 00ca 922B      		or r25,r18
 505 00cc 9083      		st Z,r25
 506 00ce 95E0      		ldi r25,lo8(5)
 507 00d0 9A95      	1:	dec r25
 508 00d2 01F4      		brne 1b
 509 00d4 0000      		nop
 510               	.L46:
 511 00d6 A881      		ld r26,Y
 512 00d8 B981      		ldd r27,Y+1
 513 00da 1296      		adiw r26,2
 514 00dc ED91      		ld r30,X+
 515 00de FC91      		ld r31,X
 516 00e0 1397      		sbiw r26,2+1
 517 00e2 2081      		ld r18,Z
 518 00e4 1696      		adiw r26,6
 519 00e6 9C91      		ld r25,X
 520 00e8 9095      		com r25
 521 00ea 9223      		and r25,r18
 522 00ec 9083      		st Z,r25
 523 00ee 95E0      		ldi r25,lo8(5)
 524 00f0 9A95      	1:	dec r25
 525 00f2 01F4      		brne 1b
 526 00f4 0000      		nop
 527 00f6 8111      		cpse r24,__zero_reg__
 528 00f8 00C0      		rjmp .L47
 529 00fa AC81      		ldd r26,Y+4
 530 00fc BD81      		ldd r27,Y+5
GAS LISTING C:\Users\Aluno\AppData\Local\Temp\ccp3tIRI.s 			page 10


 531 00fe 1296      		adiw r26,2
 532 0100 ED91      		ld r30,X+
 533 0102 FC91      		ld r31,X
 534 0104 1397      		sbiw r26,2+1
 535 0106 9081      		ld r25,Z
 536 0108 1696      		adiw r26,6
 537 010a 8C91      		ld r24,X
 538 010c 8095      		com r24
 539 010e 8923      		and r24,r25
 540 0110 8083      		st Z,r24
 541 0112 65E0      		ldi r22,lo8(5)
 542 0114 8E81      		ldd r24,Y+6
 543 0116 9F81      		ldd r25,Y+7
 544 0118 0E94 0000 		call _ZN7GpioBus7setModeENS_4ModeE
 545 011c 81E0      		ldi r24,lo8(1)
 546               	/* epilogue start */
 547 011e DF91      		pop r29
 548 0120 CF91      		pop r28
 549 0122 0895      		ret
 550               	.L45:
 551 0124 8078      		andi r24,lo8(-128)
 552 0126 00C0      		rjmp .L46
 554               		.section	.text._ZN7Hd4478013_writeCommandEh,"ax",@progbits
 555               	.global	_ZN7Hd4478013_writeCommandEh
 557               	_ZN7Hd4478013_writeCommandEh:
 558 0000 1F93      		push r17
 559 0002 CF93      		push r28
 560 0004 DF93      		push r29
 561               	/* prologue: function */
 562               	/* frame size = 0 */
 563               	/* stack size = 3 */
 564               	.L__stack_usage = 3
 565 0006 EC01      		movw r28,r24
 566 0008 162F      		mov r17,r22
 567 000a 8B85      		ldd r24,Y+11
 568 000c 81FF      		sbrs r24,1
 569 000e 00C0      		rjmp .L50
 570 0010 8885      		ldd r24,Y+8
 571 0012 80FF      		sbrs r24,0
 572 0014 00C0      		rjmp .L51
 573 0016 CE01      		movw r24,r28
 574 0018 0E94 0000 		call _ZN7Hd4478015_waitUntilReadyEv
 575               	.L51:
 576 001c AC81      		ldd r26,Y+4
 577 001e BD81      		ldd r27,Y+5
 578 0020 1296      		adiw r26,2
 579 0022 ED91      		ld r30,X+
 580 0024 FC91      		ld r31,X
 581 0026 1397      		sbiw r26,2+1
 582 0028 9081      		ld r25,Z
 583 002a 1696      		adiw r26,6
 584 002c 8C91      		ld r24,X
 585 002e 8095      		com r24
 586 0030 8923      		and r24,r25
 587 0032 8083      		st Z,r24
 588               	.L50:
 589 0034 AA81      		ldd r26,Y+2
GAS LISTING C:\Users\Aluno\AppData\Local\Temp\ccp3tIRI.s 			page 11


 590 0036 BB81      		ldd r27,Y+3
 591 0038 1296      		adiw r26,2
 592 003a ED91      		ld r30,X+
 593 003c FC91      		ld r31,X
 594 003e 1397      		sbiw r26,2+1
 595 0040 9081      		ld r25,Z
 596 0042 1696      		adiw r26,6
 597 0044 8C91      		ld r24,X
 598 0046 8095      		com r24
 599 0048 8923      		and r24,r25
 600 004a 8083      		st Z,r24
 601 004c A881      		ld r26,Y
 602 004e B981      		ldd r27,Y+1
 603 0050 1296      		adiw r26,2
 604 0052 ED91      		ld r30,X+
 605 0054 FC91      		ld r31,X
 606 0056 1397      		sbiw r26,2+1
 607 0058 9081      		ld r25,Z
 608 005a 1696      		adiw r26,6
 609 005c 8C91      		ld r24,X
 610 005e 8095      		com r24
 611 0060 8923      		and r24,r25
 612 0062 8083      		st Z,r24
 613 0064 2B85      		ldd r18,Y+11
 614 0066 8E81      		ldd r24,Y+6
 615 0068 9F81      		ldd r25,Y+7
 616 006a 612F      		mov r22,r17
 617 006c 20FF      		sbrs r18,0
 618 006e 00C0      		rjmp .L52
 619 0070 70E0      		ldi r23,0
 620 0072 24E0      		ldi r18,4
 621               		1:
 622 0074 7595      		asr r23
 623 0076 6795      		ror r22
 624 0078 2A95      		dec r18
 625 007a 01F4      		brne 1b
 626 007c 0E94 0000 		call _ZN7GpioBus5writeEh
 627 0080 A881      		ld r26,Y
 628 0082 B981      		ldd r27,Y+1
 629 0084 1296      		adiw r26,2
 630 0086 ED91      		ld r30,X+
 631 0088 FC91      		ld r31,X
 632 008a 1397      		sbiw r26,2+1
 633 008c 8081      		ld r24,Z
 634 008e 1696      		adiw r26,6
 635 0090 9C91      		ld r25,X
 636 0092 892B      		or r24,r25
 637 0094 8083      		st Z,r24
 638 0096 85E0      		ldi r24,lo8(5)
 639 0098 8A95      	1:	dec r24
 640 009a 01F4      		brne 1b
 641 009c 0000      		nop
 642 009e A881      		ld r26,Y
 643 00a0 B981      		ldd r27,Y+1
 644 00a2 1296      		adiw r26,2
 645 00a4 ED91      		ld r30,X+
 646 00a6 FC91      		ld r31,X
GAS LISTING C:\Users\Aluno\AppData\Local\Temp\ccp3tIRI.s 			page 12


 647 00a8 1397      		sbiw r26,2+1
 648 00aa 9081      		ld r25,Z
 649 00ac 1696      		adiw r26,6
 650 00ae 8C91      		ld r24,X
 651 00b0 8095      		com r24
 652 00b2 8923      		and r24,r25
 653 00b4 8083      		st Z,r24
 654 00b6 95E0      		ldi r25,lo8(5)
 655 00b8 9A95      	1:	dec r25
 656 00ba 01F4      		brne 1b
 657 00bc 0000      		nop
 658 00be 612F      		mov r22,r17
 659 00c0 6F70      		andi r22,lo8(15)
 660 00c2 8E81      		ldd r24,Y+6
 661 00c4 9F81      		ldd r25,Y+7
 662               	.L52:
 663 00c6 0E94 0000 		call _ZN7GpioBus5writeEh
 664 00ca A881      		ld r26,Y
 665 00cc B981      		ldd r27,Y+1
 666 00ce 1296      		adiw r26,2
 667 00d0 ED91      		ld r30,X+
 668 00d2 FC91      		ld r31,X
 669 00d4 1397      		sbiw r26,2+1
 670 00d6 8081      		ld r24,Z
 671 00d8 1696      		adiw r26,6
 672 00da 9C91      		ld r25,X
 673 00dc 892B      		or r24,r25
 674 00de 8083      		st Z,r24
 675 00e0 85E0      		ldi r24,lo8(5)
 676 00e2 8A95      	1:	dec r24
 677 00e4 01F4      		brne 1b
 678 00e6 0000      		nop
 679 00e8 A881      		ld r26,Y
 680 00ea B981      		ldd r27,Y+1
 681 00ec 1296      		adiw r26,2
 682 00ee ED91      		ld r30,X+
 683 00f0 FC91      		ld r31,X
 684 00f2 1397      		sbiw r26,2+1
 685 00f4 9081      		ld r25,Z
 686 00f6 1696      		adiw r26,6
 687 00f8 8C91      		ld r24,X
 688 00fa 8095      		com r24
 689 00fc 8923      		and r24,r25
 690 00fe 8083      		st Z,r24
 691 0100 95E0      		ldi r25,lo8(5)
 692 0102 9A95      	1:	dec r25
 693 0104 01F4      		brne 1b
 694 0106 0000      		nop
 695 0108 8B85      		ldd r24,Y+11
 696 010a 81FD      		sbrc r24,1
 697 010c 00C0      		rjmp .L54
 698 010e 1150      		subi r17,lo8(-(-1))
 699 0110 1230      		cpi r17,lo8(2)
 700 0112 00F4      		brsh .L55
 701 0114 8FE3      		ldi r24,lo8(7999)
 702 0116 9FE1      		ldi r25,hi8(7999)
 703 0118 0197      	1:	sbiw r24,1
GAS LISTING C:\Users\Aluno\AppData\Local\Temp\ccp3tIRI.s 			page 13


 704 011a 01F4      		brne 1b
 705 011c 00C0      		rjmp .
 706               	.L62:
 707 011e 0000      		nop
 708               	.L54:
 709 0120 81E0      		ldi r24,lo8(1)
 710               	/* epilogue start */
 711 0122 DF91      		pop r29
 712 0124 CF91      		pop r28
 713 0126 1F91      		pop r17
 714 0128 0895      		ret
 715               	.L55:
 716 012a 95ED      		ldi r25,lo8(-43)
 717 012c 9A95      	1:	dec r25
 718 012e 01F4      		brne 1b
 719 0130 00C0      		rjmp .L62
 721               		.section	.text._ZN7Hd447804initENS_4SizeENS_4FontE,"ax",@progbits
 722               	.global	_ZN7Hd447804initENS_4SizeENS_4FontE
 724               	_ZN7Hd447804initENS_4SizeENS_4FontE:
 725 0000 FF92      		push r15
 726 0002 0F93      		push r16
 727 0004 1F93      		push r17
 728 0006 CF93      		push r28
 729 0008 DF93      		push r29
 730               	/* prologue: function */
 731               	/* frame size = 0 */
 732               	/* stack size = 5 */
 733               	.L__stack_usage = 5
 734 000a EC01      		movw r28,r24
 735 000c 9B85      		ldd r25,Y+11
 736 000e 40FB      		bst r20,0
 737 0010 94F9      		bld r25,4
 738 0012 9B87      		std Y+11,r25
 739 0014 9885      		ldd r25,Y+8
 740 0016 9E7F      		andi r25,lo8(-2)
 741 0018 9D7F      		andi r25,lo8(~(1<<1))
 742 001a 9887      		std Y+8,r25
 743 001c 92FB      		bst r25,2
 744 001e 0027      		clr r16
 745 0020 00F9      		bld r16,0
 746 0022 92FD      		sbrc r25,2
 747 0024 00C0      		rjmp .L64
 748 0026 80EC      		ldi r24,lo8(-64)
 749 0028 90E0      		ldi r25,0
 750               	.L89:
 751 002a 9A87      		std Y+10,r25
 752 002c 8987      		std Y+9,r24
 753               	.L63:
 754 002e 802F      		mov r24,r16
 755               	/* epilogue start */
 756 0030 DF91      		pop r29
 757 0032 CF91      		pop r28
 758 0034 1F91      		pop r17
 759 0036 0F91      		pop r16
 760 0038 FF90      		pop r15
 761 003a 0895      		ret
 762               	.L64:
GAS LISTING C:\Users\Aluno\AppData\Local\Temp\ccp3tIRI.s 			page 14


 763 003c 93FB      		bst r25,3
 764 003e 0027      		clr r16
 765 0040 00F9      		bld r16,0
 766 0042 93FD      		sbrc r25,3
 767 0044 00C0      		rjmp .L66
 768 0046 84EC      		ldi r24,lo8(-60)
 769 0048 90E0      		ldi r25,0
 770 004a 00C0      		rjmp .L89
 771               	.L66:
 772 004c F42E      		mov r15,r20
 773 004e 162F      		mov r17,r22
 774 0050 65E0      		ldi r22,lo8(5)
 775 0052 8E81      		ldd r24,Y+6
 776 0054 9F81      		ldd r25,Y+7
 777 0056 0E94 0000 		call _ZN7GpioBus7setModeENS_4ModeE
 778 005a A881      		ld r26,Y
 779 005c B981      		ldd r27,Y+1
 780 005e 1296      		adiw r26,2
 781 0060 ED91      		ld r30,X+
 782 0062 FC91      		ld r31,X
 783 0064 1397      		sbiw r26,2+1
 784 0066 9081      		ld r25,Z
 785 0068 1696      		adiw r26,6
 786 006a 8C91      		ld r24,X
 787 006c 8095      		com r24
 788 006e 8923      		and r24,r25
 789 0070 8083      		st Z,r24
 790 0072 65E0      		ldi r22,lo8(5)
 791 0074 8881      		ld r24,Y
 792 0076 9981      		ldd r25,Y+1
 793 0078 0E94 0000 		call _ZN7GpioPin7setModeENS_4ModeE
 794 007c AA81      		ldd r26,Y+2
 795 007e BB81      		ldd r27,Y+3
 796 0080 1296      		adiw r26,2
 797 0082 ED91      		ld r30,X+
 798 0084 FC91      		ld r31,X
 799 0086 1397      		sbiw r26,2+1
 800 0088 9081      		ld r25,Z
 801 008a 1696      		adiw r26,6
 802 008c 8C91      		ld r24,X
 803 008e 8095      		com r24
 804 0090 8923      		and r24,r25
 805 0092 8083      		st Z,r24
 806 0094 65E0      		ldi r22,lo8(5)
 807 0096 8A81      		ldd r24,Y+2
 808 0098 9B81      		ldd r25,Y+3
 809 009a 0E94 0000 		call _ZN7GpioPin7setModeENS_4ModeE
 810 009e 8B85      		ldd r24,Y+11
 811 00a0 81FF      		sbrs r24,1
 812 00a2 00C0      		rjmp .L67
 813 00a4 AC81      		ldd r26,Y+4
 814 00a6 BD81      		ldd r27,Y+5
 815 00a8 1296      		adiw r26,2
 816 00aa ED91      		ld r30,X+
 817 00ac FC91      		ld r31,X
 818 00ae 1397      		sbiw r26,2+1
 819 00b0 9081      		ld r25,Z
GAS LISTING C:\Users\Aluno\AppData\Local\Temp\ccp3tIRI.s 			page 15


 820 00b2 1696      		adiw r26,6
 821 00b4 8C91      		ld r24,X
 822 00b6 8095      		com r24
 823 00b8 8923      		and r24,r25
 824 00ba 8083      		st Z,r24
 825 00bc 65E0      		ldi r22,lo8(5)
 826 00be 8C81      		ldd r24,Y+4
 827 00c0 9D81      		ldd r25,Y+5
 828 00c2 0E94 0000 		call _ZN7GpioPin7setModeENS_4ModeE
 829               	.L67:
 830 00c6 8FE5      		ldi r24,lo8(-5537)
 831 00c8 9AEE      		ldi r25,hi8(-5537)
 832 00ca 0197      	1:	sbiw r24,1
 833 00cc 01F4      		brne 1b
 834 00ce 00C0      		rjmp .
 835 00d0 0000      		nop
 836 00d2 8B85      		ldd r24,Y+11
 837 00d4 60E3      		ldi r22,lo8(48)
 838 00d6 80FF      		sbrs r24,0
 839 00d8 00C0      		rjmp .L68
 840 00da CE01      		movw r24,r28
 841 00dc 0E94 0000 		call _ZN7Hd4478017_functionSet8BitsEh
 842 00e0 8FE1      		ldi r24,lo8(19999)
 843 00e2 9EE4      		ldi r25,hi8(19999)
 844 00e4 0197      	1:	sbiw r24,1
 845 00e6 01F4      		brne 1b
 846 00e8 00C0      		rjmp .
 847 00ea 0000      		nop
 848 00ec 60E3      		ldi r22,lo8(48)
 849 00ee CE01      		movw r24,r28
 850 00f0 0E94 0000 		call _ZN7Hd4478017_functionSet8BitsEh
 851 00f4 8FE8      		ldi r24,lo8(399)
 852 00f6 91E0      		ldi r25,hi8(399)
 853 00f8 0197      	1:	sbiw r24,1
 854 00fa 01F4      		brne 1b
 855 00fc 00C0      		rjmp .
 856 00fe 0000      		nop
 857 0100 60E3      		ldi r22,lo8(48)
 858 0102 CE01      		movw r24,r28
 859 0104 0E94 0000 		call _ZN7Hd4478017_functionSet8BitsEh
 860               	.L69:
 861 0108 8FE8      		ldi r24,lo8(399)
 862 010a 91E0      		ldi r25,hi8(399)
 863 010c 0197      	1:	sbiw r24,1
 864 010e 01F4      		brne 1b
 865 0110 00C0      		rjmp .
 866 0112 0000      		nop
 867 0114 8B85      		ldd r24,Y+11
 868 0116 80FF      		sbrs r24,0
 869 0118 00C0      		rjmp .L70
 870 011a 60E2      		ldi r22,lo8(32)
 871 011c CE01      		movw r24,r28
 872 011e 0E94 0000 		call _ZN7Hd4478017_functionSet8BitsEh
 873 0122 8FE8      		ldi r24,lo8(399)
 874 0124 91E0      		ldi r25,hi8(399)
 875 0126 0197      	1:	sbiw r24,1
 876 0128 01F4      		brne 1b
GAS LISTING C:\Users\Aluno\AppData\Local\Temp\ccp3tIRI.s 			page 16


 877 012a 00C0      		rjmp .
 878 012c 0000      		nop
 879               	.L70:
 880 012e 8B85      		ldd r24,Y+11
 881 0130 60E1      		ldi r22,lo8(16)
 882 0132 80FD      		sbrc r24,0
 883 0134 60E0      		ldi r22,0
 884               	.L71:
 885 0136 6062      		ori r22,lo8(32)
 886 0138 90E0      		ldi r25,0
 887 013a F110      		cpse r15,__zero_reg__
 888 013c 94E0      		ldi r25,lo8(4)
 889               	.L72:
 890 013e 692B      		or r22,r25
 891 0140 98E0      		ldi r25,lo8(8)
 892 0142 1436      		cpi r17,lo8(100)
 893 0144 00F4      		brsh .L73
 894 0146 90E0      		ldi r25,0
 895               	.L73:
 896 0148 692B      		or r22,r25
 897 014a CE01      		movw r24,r28
 898 014c 0E94 0000 		call _ZN7Hd4478013_writeCommandEh
 899 0150 8885      		ldd r24,Y+8
 900 0152 8160      		ori r24,lo8(1<<0)
 901 0154 8887      		std Y+8,r24
 902 0156 68E0      		ldi r22,lo8(8)
 903 0158 CE01      		movw r24,r28
 904 015a 0E94 0000 		call _ZN7Hd4478013_writeCommandEh
 905 015e 61E0      		ldi r22,lo8(1)
 906 0160 CE01      		movw r24,r28
 907 0162 0E94 0000 		call _ZN7Hd4478013_writeCommandEh
 908 0166 8B85      		ldd r24,Y+11
 909 0168 64E0      		ldi r22,lo8(4)
 910 016a 85FD      		sbrc r24,5
 911 016c 66E0      		ldi r22,lo8(6)
 912               	.L74:
 913 016e 86FD      		sbrc r24,6
 914 0170 6160      		ori r22,lo8(1)
 915               	.L75:
 916 0172 CE01      		movw r24,r28
 917 0174 0E94 0000 		call _ZN7Hd4478013_writeCommandEh
 918 0178 6CE0      		ldi r22,lo8(12)
 919 017a CE01      		movw r24,r28
 920 017c 0E94 0000 		call _ZN7Hd4478013_writeCommandEh
 921 0180 4B85      		ldd r20,Y+11
 922 0182 212F      		mov r18,r17
 923 0184 30E0      		ldi r19,0
 924 0186 C901      		movw r24,r18
 925 0188 62E3      		ldi r22,lo8(50)
 926 018a 70E0      		ldi r23,0
 927 018c 0E94 0000 		call __divmodhi4
 928 0190 6150      		subi r22,lo8(-(-1))
 929 0192 6370      		andi r22,lo8(3)
 930 0194 660F      		lsl r22
 931 0196 660F      		lsl r22
 932 0198 4377      		andi r20,lo8(115)
 933 019a 642B      		or r22,r20
GAS LISTING C:\Users\Aluno\AppData\Local\Temp\ccp3tIRI.s 			page 17


 934 019c 6B87      		std Y+11,r22
 935 019e C901      		movw r24,r18
 936 01a0 880F      		lsl r24
 937 01a2 991F      		rol r25
 938 01a4 64E6      		ldi r22,lo8(100)
 939 01a6 70E0      		ldi r23,0
 940 01a8 0E94 0000 		call __divmodhi4
 941 01ac 8150      		subi r24,lo8(-(-1))
 942 01ae 982F      		mov r25,r24
 943 01b0 9295      		swap r25
 944 01b2 907F      		andi r25,lo8(-16)
 945 01b4 9860      		ori r25,lo8(8)
 946 01b6 9C87      		std Y+12,r25
 947 01b8 8295      		swap r24
 948 01ba 8370      		andi r24,lo8(3)
 949 01bc 8D87      		std Y+13,r24
 950 01be 8885      		ldd r24,Y+8
 951 01c0 8260      		ori r24,lo8(1<<1)
 952 01c2 8887      		std Y+8,r24
 953 01c4 1A86      		std Y+10,__zero_reg__
 954 01c6 1986      		std Y+9,__zero_reg__
 955 01c8 00C0      		rjmp .L63
 956               	.L68:
 957 01ca CE01      		movw r24,r28
 958 01cc 0E94 0000 		call _ZN7Hd4478013_writeCommandEh
 959 01d0 8FE1      		ldi r24,lo8(19999)
 960 01d2 9EE4      		ldi r25,hi8(19999)
 961 01d4 0197      	1:	sbiw r24,1
 962 01d6 01F4      		brne 1b
 963 01d8 00C0      		rjmp .
 964 01da 0000      		nop
 965 01dc 60E3      		ldi r22,lo8(48)
 966 01de CE01      		movw r24,r28
 967 01e0 0E94 0000 		call _ZN7Hd4478013_writeCommandEh
 968 01e4 8FE8      		ldi r24,lo8(399)
 969 01e6 91E0      		ldi r25,hi8(399)
 970 01e8 0197      	1:	sbiw r24,1
 971 01ea 01F4      		brne 1b
 972 01ec 00C0      		rjmp .
 973 01ee 0000      		nop
 974 01f0 60E3      		ldi r22,lo8(48)
 975 01f2 CE01      		movw r24,r28
 976 01f4 0E94 0000 		call _ZN7Hd4478013_writeCommandEh
 977 01f8 00C0      		rjmp .L69
 979               		.section	.text._ZN7Hd4478011clearScreenEv,"ax",@progbits
 980               	.global	_ZN7Hd4478011clearScreenEv
 982               	_ZN7Hd4478011clearScreenEv:
 983 0000 CF93      		push r28
 984 0002 DF93      		push r29
 985               	/* prologue: function */
 986               	/* frame size = 0 */
 987               	/* stack size = 2 */
 988               	.L__stack_usage = 2
 989 0004 EC01      		movw r28,r24
 990 0006 9885      		ldd r25,Y+8
 991 0008 91FB      		bst r25,1
 992 000a 8827      		clr r24
GAS LISTING C:\Users\Aluno\AppData\Local\Temp\ccp3tIRI.s 			page 18


 993 000c 80F9      		bld r24,0
 994 000e 91FD      		sbrc r25,1
 995 0010 00C0      		rjmp .L91
 996 0012 24E0      		ldi r18,lo8(4)
 997 0014 30E0      		ldi r19,0
 998 0016 3A87      		std Y+10,r19
 999 0018 2987      		std Y+9,r18
 1000               	.L90:
 1001               	/* epilogue start */
 1002 001a DF91      		pop r29
 1003 001c CF91      		pop r28
 1004 001e 0895      		ret
 1005               	.L91:
 1006 0020 61E0      		ldi r22,lo8(1)
 1007 0022 CE01      		movw r24,r28
 1008 0024 0E94 0000 		call _ZN7Hd4478013_writeCommandEh
 1009 0028 8823      		tst r24
 1010 002a 01F0      		breq .L90
 1011 002c 9C85      		ldd r25,Y+12
 1012 002e 9C7F      		andi r25,lo8(-4)
 1013 0030 9C87      		std Y+12,r25
 1014 0032 9D85      		ldd r25,Y+13
 1015 0034 9370      		andi r25,lo8(3)
 1016 0036 9D87      		std Y+13,r25
 1017 0038 1A86      		std Y+10,__zero_reg__
 1018 003a 1986      		std Y+9,__zero_reg__
 1019 003c 00C0      		rjmp .L90
 1021               		.section	.text._ZN7Hd4478010cursorGoToEhh,"ax",@progbits
 1022               	.global	_ZN7Hd4478010cursorGoToEhh
 1024               	_ZN7Hd4478010cursorGoToEhh:
 1025 0000 1F93      		push r17
 1026 0002 CF93      		push r28
 1027 0004 DF93      		push r29
 1028               	/* prologue: function */
 1029               	/* frame size = 0 */
 1030               	/* stack size = 3 */
 1031               	.L__stack_usage = 3
 1032 0006 EC01      		movw r28,r24
 1033 0008 8885      		ldd r24,Y+8
 1034 000a 81FB      		bst r24,1
 1035 000c 1127      		clr r17
 1036 000e 10F9      		bld r17,0
 1037 0010 81FD      		sbrc r24,1
 1038 0012 00C0      		rjmp .L97
 1039 0014 84E0      		ldi r24,lo8(4)
 1040 0016 90E0      		ldi r25,0
 1041 0018 9A87      		std Y+10,r25
 1042 001a 8987      		std Y+9,r24
 1043               	.L96:
 1044 001c 812F      		mov r24,r17
 1045               	/* epilogue start */
 1046 001e DF91      		pop r29
 1047 0020 CF91      		pop r28
 1048 0022 1F91      		pop r17
 1049 0024 0895      		ret
 1050               	.L97:
 1051 0026 962F      		mov r25,r22
GAS LISTING C:\Users\Aluno\AppData\Local\Temp\ccp3tIRI.s 			page 19


 1052 0028 6130      		cpi r22,lo8(1)
 1053 002a 01F0      		breq .L100
 1054 002c 00F4      		brsh .+2
 1055 002e 00C0      		rjmp .L108
 1056 0030 6230      		cpi r22,lo8(2)
 1057 0032 01F0      		breq .L102
 1058 0034 6330      		cpi r22,lo8(3)
 1059 0036 01F0      		breq .L103
 1060               	.L99:
 1061 0038 1A86      		std Y+10,__zero_reg__
 1062 003a 1986      		std Y+9,__zero_reg__
 1063 003c 00C0      		rjmp .L96
 1064               	.L100:
 1065 003e 8B85      		ldd r24,Y+11
 1066 0040 8C70      		andi r24,lo8(12)
 1067 0042 60E4      		ldi r22,lo8(64)
 1068 0044 01F0      		breq .L99
 1069               	.L115:
 1070 0046 640F      		add r22,r20
 1071               	.L101:
 1072 0048 6F3F      		cpi r22,lo8(-1)
 1073 004a 01F0      		breq .L99
 1074 004c 9370      		andi r25,lo8(3)
 1075 004e 8C85      		ldd r24,Y+12
 1076 0050 8C7F      		andi r24,lo8(-4)
 1077 0052 982B      		or r25,r24
 1078 0054 9C87      		std Y+12,r25
 1079 0056 440F      		lsl r20
 1080 0058 440F      		lsl r20
 1081 005a 8D85      		ldd r24,Y+13
 1082 005c 8370      		andi r24,lo8(3)
 1083 005e 482B      		or r20,r24
 1084 0060 4D87      		std Y+13,r20
 1085 0062 6068      		ori r22,lo8(-128)
 1086 0064 CE01      		movw r24,r28
 1087 0066 0E94 0000 		call _ZN7Hd4478013_writeCommandEh
 1088 006a 00C0      		rjmp .L99
 1089               	.L102:
 1090 006c 8B85      		ldd r24,Y+11
 1091 006e 8C70      		andi r24,lo8(12)
 1092 0070 8C30      		cpi r24,lo8(12)
 1093 0072 01F4      		brne .L99
 1094 0074 8C85      		ldd r24,Y+12
 1095 0076 282F      		mov r18,r24
 1096 0078 2295      		swap r18
 1097 007a 2F70      		andi r18,lo8(15)
 1098 007c 8D85      		ldd r24,Y+13
 1099 007e 8370      		andi r24,lo8(3)
 1100 0080 8295      		swap r24
 1101 0082 807F      		andi r24,lo8(-16)
 1102 0084 822B      		or r24,r18
 1103 0086 6CE0      		ldi r22,lo8(12)
 1104 0088 8B30      		cpi r24,lo8(11)
 1105 008a 01F0      		breq .L115
 1106 008c 60E1      		ldi r22,lo8(16)
 1107 008e 8F30      		cpi r24,lo8(15)
 1108 0090 01F0      		breq .L115
GAS LISTING C:\Users\Aluno\AppData\Local\Temp\ccp3tIRI.s 			page 20


 1109 0092 64E1      		ldi r22,lo8(20)
 1110 0094 8331      		cpi r24,lo8(19)
 1111 0096 01F4      		brne .L99
 1112 0098 00C0      		rjmp .L115
 1113               	.L103:
 1114 009a 8B85      		ldd r24,Y+11
 1115 009c 8C70      		andi r24,lo8(12)
 1116 009e 8C30      		cpi r24,lo8(12)
 1117 00a0 01F4      		brne .L99
 1118 00a2 8C85      		ldd r24,Y+12
 1119 00a4 282F      		mov r18,r24
 1120 00a6 2295      		swap r18
 1121 00a8 2F70      		andi r18,lo8(15)
 1122 00aa 8D85      		ldd r24,Y+13
 1123 00ac 8370      		andi r24,lo8(3)
 1124 00ae 8295      		swap r24
 1125 00b0 807F      		andi r24,lo8(-16)
 1126 00b2 822B      		or r24,r18
 1127 00b4 6CE4      		ldi r22,lo8(76)
 1128 00b6 8B30      		cpi r24,lo8(11)
 1129 00b8 01F0      		breq .L115
 1130 00ba 60E5      		ldi r22,lo8(80)
 1131 00bc 8F30      		cpi r24,lo8(15)
 1132 00be 01F0      		breq .L115
 1133 00c0 8331      		cpi r24,lo8(19)
 1134 00c2 01F0      		breq .+2
 1135 00c4 00C0      		rjmp .L99
 1136 00c6 64E5      		ldi r22,lo8(84)
 1137 00c8 00C0      		rjmp .L115
 1138               	.L108:
 1139 00ca 642F      		mov r22,r20
 1140 00cc 00C0      		rjmp .L101
 1142               		.section	.text._ZN7Hd4478018cursorMoveNextLineEv,"ax",@progbits
 1143               	.global	_ZN7Hd4478018cursorMoveNextLineEv
 1145               	_ZN7Hd4478018cursorMoveNextLineEv:
 1146 0000 CF93      		push r28
 1147 0002 DF93      		push r29
 1148               	/* prologue: function */
 1149               	/* frame size = 0 */
 1150               	/* stack size = 2 */
 1151               	.L__stack_usage = 2
 1152 0004 EC01      		movw r28,r24
 1153 0006 9885      		ldd r25,Y+8
 1154 0008 91FB      		bst r25,1
 1155 000a 8827      		clr r24
 1156 000c 80F9      		bld r24,0
 1157 000e 91FD      		sbrc r25,1
 1158 0010 00C0      		rjmp .L117
 1159 0012 24E0      		ldi r18,lo8(4)
 1160 0014 30E0      		ldi r19,0
 1161 0016 3A87      		std Y+10,r19
 1162 0018 2987      		std Y+9,r18
 1163               	.L116:
 1164               	/* epilogue start */
 1165 001a DF91      		pop r29
 1166 001c CF91      		pop r28
 1167 001e 0895      		ret
GAS LISTING C:\Users\Aluno\AppData\Local\Temp\ccp3tIRI.s 			page 21


 1168               	.L117:
 1169 0020 8C85      		ldd r24,Y+12
 1170 0022 8370      		andi r24,lo8(3)
 1171 0024 8F5F      		subi r24,lo8(-(1))
 1172 0026 90E0      		ldi r25,0
 1173 0028 6B85      		ldd r22,Y+11
 1174 002a 6695      		lsr r22
 1175 002c 6695      		lsr r22
 1176 002e 6370      		andi r22,lo8(3)
 1177 0030 70E0      		ldi r23,0
 1178 0032 6F5F      		subi r22,-1
 1179 0034 7F4F      		sbci r23,-1
 1180 0036 0E94 0000 		call __divmodhi4
 1181 003a 40E0      		ldi r20,0
 1182 003c 682F      		mov r22,r24
 1183 003e CE01      		movw r24,r28
 1184 0040 0E94 0000 		call _ZN7Hd4478010cursorGoToEhh
 1185 0044 8823      		tst r24
 1186 0046 01F0      		breq .L116
 1187 0048 1A86      		std Y+10,__zero_reg__
 1188 004a 1986      		std Y+9,__zero_reg__
 1189 004c 00C0      		rjmp .L116
 1191               		.section	.text._ZN7Hd4478010cursorHomeEv,"ax",@progbits
 1192               	.global	_ZN7Hd4478010cursorHomeEv
 1194               	_ZN7Hd4478010cursorHomeEv:
 1195 0000 CF93      		push r28
 1196 0002 DF93      		push r29
 1197               	/* prologue: function */
 1198               	/* frame size = 0 */
 1199               	/* stack size = 2 */
 1200               	.L__stack_usage = 2
 1201 0004 EC01      		movw r28,r24
 1202 0006 9885      		ldd r25,Y+8
 1203 0008 91FB      		bst r25,1
 1204 000a 8827      		clr r24
 1205 000c 80F9      		bld r24,0
 1206 000e 91FD      		sbrc r25,1
 1207 0010 00C0      		rjmp .L123
 1208 0012 24E0      		ldi r18,lo8(4)
 1209 0014 30E0      		ldi r19,0
 1210 0016 3A87      		std Y+10,r19
 1211 0018 2987      		std Y+9,r18
 1212               	.L122:
 1213               	/* epilogue start */
 1214 001a DF91      		pop r29
 1215 001c CF91      		pop r28
 1216 001e 0895      		ret
 1217               	.L123:
 1218 0020 62E0      		ldi r22,lo8(2)
 1219 0022 CE01      		movw r24,r28
 1220 0024 0E94 0000 		call _ZN7Hd4478013_writeCommandEh
 1221 0028 8823      		tst r24
 1222 002a 01F0      		breq .L122
 1223 002c 9C85      		ldd r25,Y+12
 1224 002e 9C7F      		andi r25,lo8(-4)
 1225 0030 9C87      		std Y+12,r25
 1226 0032 9D85      		ldd r25,Y+13
GAS LISTING C:\Users\Aluno\AppData\Local\Temp\ccp3tIRI.s 			page 22


 1227 0034 9370      		andi r25,lo8(3)
 1228 0036 9D87      		std Y+13,r25
 1229 0038 1A86      		std Y+10,__zero_reg__
 1230 003a 1986      		std Y+9,__zero_reg__
 1231 003c 00C0      		rjmp .L122
 1233               		.section	.text._ZN7Hd4478019cursorMoveFirstLineEv,"ax",@progbits
 1234               	.global	_ZN7Hd4478019cursorMoveFirstLineEv
 1236               	_ZN7Hd4478019cursorMoveFirstLineEv:
 1237               	/* prologue: function */
 1238               	/* frame size = 0 */
 1239               	/* stack size = 0 */
 1240               	.L__stack_usage = 0
 1241 0000 0C94 0000 		jmp _ZN7Hd4478010cursorHomeEv
 1243               		.section	.text._ZN7Hd4478010cursorMoveE9Direction,"ax",@progbits
 1244               	.global	_ZN7Hd4478010cursorMoveE9Direction
 1246               	_ZN7Hd4478010cursorMoveE9Direction:
 1247 0000 1F93      		push r17
 1248 0002 CF93      		push r28
 1249 0004 DF93      		push r29
 1250               	/* prologue: function */
 1251               	/* frame size = 0 */
 1252               	/* stack size = 3 */
 1253               	.L__stack_usage = 3
 1254 0006 EC01      		movw r28,r24
 1255 0008 262F      		mov r18,r22
 1256 000a 8885      		ldd r24,Y+8
 1257 000c 81FB      		bst r24,1
 1258 000e 1127      		clr r17
 1259 0010 10F9      		bld r17,0
 1260 0012 81FD      		sbrc r24,1
 1261 0014 00C0      		rjmp .L130
 1262 0016 84E0      		ldi r24,lo8(4)
 1263 0018 90E0      		ldi r25,0
 1264 001a 9A87      		std Y+10,r25
 1265 001c 8987      		std Y+9,r24
 1266               	.L129:
 1267 001e 812F      		mov r24,r17
 1268               	/* epilogue start */
 1269 0020 DF91      		pop r29
 1270 0022 CF91      		pop r28
 1271 0024 1F91      		pop r17
 1272 0026 0895      		ret
 1273               	.L130:
 1274 0028 60E0      		ldi r22,0
 1275 002a 2111      		cpse r18,__zero_reg__
 1276 002c 60E4      		ldi r22,lo8(64)
 1277               	.L132:
 1278 002e 6061      		ori r22,lo8(16)
 1279 0030 8D85      		ldd r24,Y+13
 1280 0032 982F      		mov r25,r24
 1281 0034 9695      		lsr r25
 1282 0036 9695      		lsr r25
 1283 0038 8370      		andi r24,lo8(3)
 1284 003a 2111      		cpse r18,__zero_reg__
 1285 003c 00C0      		rjmp .L133
 1286 003e 915C      		subi r25,lo8(-(63))
 1287 0040 292F      		mov r18,r25
GAS LISTING C:\Users\Aluno\AppData\Local\Temp\ccp3tIRI.s 			page 23


 1288 0042 220F      		lsl r18
 1289 0044 220F      		lsl r18
 1290 0046 282B      		or r18,r24
 1291 0048 2D87      		std Y+13,r18
 1292               	.L134:
 1293 004a CE01      		movw r24,r28
 1294 004c 0E94 0000 		call _ZN7Hd4478013_writeCommandEh
 1295 0050 1A86      		std Y+10,__zero_reg__
 1296 0052 1986      		std Y+9,__zero_reg__
 1297 0054 00C0      		rjmp .L129
 1298               	.L133:
 1299 0056 9F5F      		subi r25,lo8(-(1))
 1300 0058 990F      		lsl r25
 1301 005a 990F      		lsl r25
 1302 005c 982B      		or r25,r24
 1303 005e 9D87      		std Y+13,r25
 1304 0060 00C0      		rjmp .L134
 1306               		.section	.text._ZN7Hd4478015setDisplayStateENS_12DisplayStateE,"ax",@progbits
 1307               	.global	_ZN7Hd4478015setDisplayStateENS_12DisplayStateE
 1309               	_ZN7Hd4478015setDisplayStateENS_12DisplayStateE:
 1310 0000 EF92      		push r14
 1311 0002 FF92      		push r15
 1312 0004 0F93      		push r16
 1313 0006 1F93      		push r17
 1314 0008 CF93      		push r28
 1315 000a DF93      		push r29
 1316               	/* prologue: function */
 1317               	/* frame size = 0 */
 1318               	/* stack size = 6 */
 1319               	.L__stack_usage = 6
 1320 000c EC01      		movw r28,r24
 1321 000e 8885      		ldd r24,Y+8
 1322 0010 81FB      		bst r24,1
 1323 0012 FF24      		clr r15
 1324 0014 F0F8      		bld r15,0
 1325 0016 81FD      		sbrc r24,1
 1326 0018 00C0      		rjmp .L137
 1327 001a 84E0      		ldi r24,lo8(4)
 1328 001c 90E0      		ldi r25,0
 1329 001e 9A87      		std Y+10,r25
 1330 0020 8987      		std Y+9,r24
 1331               	.L136:
 1332 0022 8F2D      		mov r24,r15
 1333               	/* epilogue start */
 1334 0024 DF91      		pop r29
 1335 0026 CF91      		pop r28
 1336 0028 1F91      		pop r17
 1337 002a 0F91      		pop r16
 1338 002c FF90      		pop r15
 1339 002e EF90      		pop r14
 1340 0030 0895      		ret
 1341               	.L137:
 1342 0032 6150      		subi r22,1
 1343 0034 7109      		sbc r23,__zero_reg__
 1344 0036 6330      		cpi r22,3
 1345 0038 7105      		cpc r23,__zero_reg__
 1346 003a 00F4      		brsh .L141
GAS LISTING C:\Users\Aluno\AppData\Local\Temp\ccp3tIRI.s 			page 24


 1347 003c FB01      		movw r30,r22
 1348 003e E050      		subi r30,lo8(-(CSWTCH.75))
 1349 0040 F040      		sbci r31,hi8(-(CSWTCH.75))
 1350 0042 1081      		ld r17,Z
 1351 0044 6050      		subi r22,lo8(-(CSWTCH.76))
 1352 0046 7040      		sbci r23,hi8(-(CSWTCH.76))
 1353 0048 FB01      		movw r30,r22
 1354 004a 0081      		ld r16,Z
 1355 004c EF2C      		mov r14,r15
 1356 004e 64E0      		ldi r22,lo8(4)
 1357               	.L139:
 1358 0050 6860      		ori r22,lo8(8)
 1359 0052 80E0      		ldi r24,0
 1360 0054 1111      		cpse r17,__zero_reg__
 1361 0056 82E0      		ldi r24,lo8(2)
 1362               	.L140:
 1363 0058 602B      		or r22,r16
 1364 005a 682B      		or r22,r24
 1365 005c CE01      		movw r24,r28
 1366 005e 0E94 0000 		call _ZN7Hd4478013_writeCommandEh
 1367 0062 8B85      		ldd r24,Y+11
 1368 0064 00FB      		bst r16,0
 1369 0066 87F9      		bld r24,7
 1370 0068 8B87      		std Y+11,r24
 1371 006a 8C85      		ldd r24,Y+12
 1372 006c 10FB      		bst r17,0
 1373 006e 82F9      		bld r24,2
 1374 0070 E0FA      		bst r14,0
 1375 0072 83F9      		bld r24,3
 1376 0074 8C87      		std Y+12,r24
 1377 0076 1A86      		std Y+10,__zero_reg__
 1378 0078 1986      		std Y+9,__zero_reg__
 1379 007a 00C0      		rjmp .L136
 1380               	.L141:
 1381 007c 00E0      		ldi r16,0
 1382 007e 10E0      		ldi r17,0
 1383 0080 E12C      		mov r14,__zero_reg__
 1384 0082 60E0      		ldi r22,0
 1385 0084 00C0      		rjmp .L139
 1387               		.section	.text._ZN7Hd4478012displayShiftE9Direction,"ax",@progbits
 1388               	.global	_ZN7Hd4478012displayShiftE9Direction
 1390               	_ZN7Hd4478012displayShiftE9Direction:
 1391 0000 1F93      		push r17
 1392 0002 CF93      		push r28
 1393 0004 DF93      		push r29
 1394               	/* prologue: function */
 1395               	/* frame size = 0 */
 1396               	/* stack size = 3 */
 1397               	.L__stack_usage = 3
 1398 0006 EC01      		movw r28,r24
 1399 0008 262F      		mov r18,r22
 1400 000a 8885      		ldd r24,Y+8
 1401 000c 81FB      		bst r24,1
 1402 000e 1127      		clr r17
 1403 0010 10F9      		bld r17,0
 1404 0012 81FD      		sbrc r24,1
 1405 0014 00C0      		rjmp .L144
GAS LISTING C:\Users\Aluno\AppData\Local\Temp\ccp3tIRI.s 			page 25


 1406 0016 84E0      		ldi r24,lo8(4)
 1407 0018 90E0      		ldi r25,0
 1408 001a 9A87      		std Y+10,r25
 1409 001c 8987      		std Y+9,r24
 1410               	.L143:
 1411 001e 812F      		mov r24,r17
 1412               	/* epilogue start */
 1413 0020 DF91      		pop r29
 1414 0022 CF91      		pop r28
 1415 0024 1F91      		pop r17
 1416 0026 0895      		ret
 1417               	.L144:
 1418 0028 60E0      		ldi r22,0
 1419 002a 2111      		cpse r18,__zero_reg__
 1420 002c 60E4      		ldi r22,lo8(64)
 1421               	.L146:
 1422 002e 6069      		ori r22,lo8(-112)
 1423 0030 8D85      		ldd r24,Y+13
 1424 0032 982F      		mov r25,r24
 1425 0034 9695      		lsr r25
 1426 0036 9695      		lsr r25
 1427 0038 8370      		andi r24,lo8(3)
 1428 003a 2111      		cpse r18,__zero_reg__
 1429 003c 00C0      		rjmp .L147
 1430 003e 915C      		subi r25,lo8(-(63))
 1431 0040 292F      		mov r18,r25
 1432 0042 220F      		lsl r18
 1433 0044 220F      		lsl r18
 1434 0046 282B      		or r18,r24
 1435 0048 2D87      		std Y+13,r18
 1436               	.L148:
 1437 004a CE01      		movw r24,r28
 1438 004c 0E94 0000 		call _ZN7Hd4478013_writeCommandEh
 1439 0050 1A86      		std Y+10,__zero_reg__
 1440 0052 1986      		std Y+9,__zero_reg__
 1441 0054 00C0      		rjmp .L143
 1442               	.L147:
 1443 0056 9F5F      		subi r25,lo8(-(1))
 1444 0058 990F      		lsl r25
 1445 005a 990F      		lsl r25
 1446 005c 982B      		or r25,r24
 1447 005e 9D87      		std Y+13,r25
 1448 0060 00C0      		rjmp .L148
 1450               		.section	.text._ZN7Hd4478012setEntryModeENS_4StepENS_11DisplayModeE,"ax",@progbits
 1451               	.global	_ZN7Hd4478012setEntryModeENS_4StepENS_11DisplayModeE
 1453               	_ZN7Hd4478012setEntryModeENS_4StepENS_11DisplayModeE:
 1454 0000 FF92      		push r15
 1455 0002 0F93      		push r16
 1456 0004 1F93      		push r17
 1457 0006 CF93      		push r28
 1458 0008 DF93      		push r29
 1459               	/* prologue: function */
 1460               	/* frame size = 0 */
 1461               	/* stack size = 5 */
 1462               	.L__stack_usage = 5
 1463 000a EC01      		movw r28,r24
 1464 000c 8885      		ldd r24,Y+8
GAS LISTING C:\Users\Aluno\AppData\Local\Temp\ccp3tIRI.s 			page 26


 1465 000e 81FB      		bst r24,1
 1466 0010 FF24      		clr r15
 1467 0012 F0F8      		bld r15,0
 1468 0014 81FD      		sbrc r24,1
 1469 0016 00C0      		rjmp .L151
 1470 0018 84E0      		ldi r24,lo8(4)
 1471 001a 90E0      		ldi r25,0
 1472 001c 9A87      		std Y+10,r25
 1473 001e 8987      		std Y+9,r24
 1474               	.L150:
 1475 0020 8F2D      		mov r24,r15
 1476               	/* epilogue start */
 1477 0022 DF91      		pop r29
 1478 0024 CF91      		pop r28
 1479 0026 1F91      		pop r17
 1480 0028 0F91      		pop r16
 1481 002a FF90      		pop r15
 1482 002c 0895      		ret
 1483               	.L151:
 1484 002e 142F      		mov r17,r20
 1485 0030 062F      		mov r16,r22
 1486 0032 8B85      		ldd r24,Y+11
 1487 0034 682F      		mov r22,r24
 1488 0036 6295      		swap r22
 1489 0038 6270      		andi r22,lo8(2)
 1490 003a 86FB      		bst r24,6
 1491 003c 8827      		clr r24
 1492 003e 80F9      		bld r24,0
 1493 0040 682B      		or r22,r24
 1494 0042 6460      		ori r22,lo8(4)
 1495 0044 CE01      		movw r24,r28
 1496 0046 0E94 0000 		call _ZN7Hd4478013_writeCommandEh
 1497 004a 8B85      		ldd r24,Y+11
 1498 004c 00FB      		bst r16,0
 1499 004e 85F9      		bld r24,5
 1500 0050 10FB      		bst r17,0
 1501 0052 86F9      		bld r24,6
 1502 0054 8B87      		std Y+11,r24
 1503 0056 1A86      		std Y+10,__zero_reg__
 1504 0058 1986      		std Y+9,__zero_reg__
 1505 005a 00C0      		rjmp .L150
 1507               		.section	.text._ZN7Hd4478015_writeCharacterEhb,"ax",@progbits
 1508               	.global	_ZN7Hd4478015_writeCharacterEhb
 1510               	_ZN7Hd4478015_writeCharacterEhb:
 1511 0000 0F93      		push r16
 1512 0002 1F93      		push r17
 1513 0004 CF93      		push r28
 1514 0006 DF93      		push r29
 1515               	/* prologue: function */
 1516               	/* frame size = 0 */
 1517               	/* stack size = 4 */
 1518               	.L__stack_usage = 4
 1519 0008 FC01      		movw r30,r24
 1520 000a 2585      		ldd r18,Z+13
 1521 000c 203A      		cpi r18,lo8(-96)
 1522 000e 00F0      		brlo .L154
 1523 0010 4111      		cpse r20,__zero_reg__
GAS LISTING C:\Users\Aluno\AppData\Local\Temp\ccp3tIRI.s 			page 27


 1524 0012 00C0      		rjmp .L155
 1525               	.L154:
 1526 0014 042F      		mov r16,r20
 1527 0016 162F      		mov r17,r22
 1528 0018 EC01      		movw r28,r24
 1529 001a 8B85      		ldd r24,Y+11
 1530 001c 81FF      		sbrs r24,1
 1531 001e 00C0      		rjmp .L156
 1532 0020 CE01      		movw r24,r28
 1533 0022 0E94 0000 		call _ZN7Hd4478015_waitUntilReadyEv
 1534 0026 AC81      		ldd r26,Y+4
 1535 0028 BD81      		ldd r27,Y+5
 1536 002a 1296      		adiw r26,2
 1537 002c ED91      		ld r30,X+
 1538 002e FC91      		ld r31,X
 1539 0030 1397      		sbiw r26,2+1
 1540 0032 9081      		ld r25,Z
 1541 0034 1696      		adiw r26,6
 1542 0036 8C91      		ld r24,X
 1543 0038 8095      		com r24
 1544 003a 8923      		and r24,r25
 1545 003c 8083      		st Z,r24
 1546               	.L156:
 1547 003e AA81      		ldd r26,Y+2
 1548 0040 BB81      		ldd r27,Y+3
 1549 0042 1296      		adiw r26,2
 1550 0044 ED91      		ld r30,X+
 1551 0046 FC91      		ld r31,X
 1552 0048 1397      		sbiw r26,2+1
 1553 004a 8081      		ld r24,Z
 1554 004c 1696      		adiw r26,6
 1555 004e 9C91      		ld r25,X
 1556 0050 892B      		or r24,r25
 1557 0052 8083      		st Z,r24
 1558 0054 A881      		ld r26,Y
 1559 0056 B981      		ldd r27,Y+1
 1560 0058 1296      		adiw r26,2
 1561 005a ED91      		ld r30,X+
 1562 005c FC91      		ld r31,X
 1563 005e 1397      		sbiw r26,2+1
 1564 0060 9081      		ld r25,Z
 1565 0062 1696      		adiw r26,6
 1566 0064 8C91      		ld r24,X
 1567 0066 8095      		com r24
 1568 0068 8923      		and r24,r25
 1569 006a 8083      		st Z,r24
 1570 006c 2B85      		ldd r18,Y+11
 1571 006e 8E81      		ldd r24,Y+6
 1572 0070 9F81      		ldd r25,Y+7
 1573 0072 612F      		mov r22,r17
 1574 0074 20FF      		sbrs r18,0
 1575 0076 00C0      		rjmp .L157
 1576 0078 70E0      		ldi r23,0
 1577 007a 24E0      		ldi r18,4
 1578               		1:
 1579 007c 7595      		asr r23
 1580 007e 6795      		ror r22
GAS LISTING C:\Users\Aluno\AppData\Local\Temp\ccp3tIRI.s 			page 28


 1581 0080 2A95      		dec r18
 1582 0082 01F4      		brne 1b
 1583 0084 0E94 0000 		call _ZN7GpioBus5writeEh
 1584 0088 A881      		ld r26,Y
 1585 008a B981      		ldd r27,Y+1
 1586 008c 1296      		adiw r26,2
 1587 008e ED91      		ld r30,X+
 1588 0090 FC91      		ld r31,X
 1589 0092 1397      		sbiw r26,2+1
 1590 0094 8081      		ld r24,Z
 1591 0096 1696      		adiw r26,6
 1592 0098 9C91      		ld r25,X
 1593 009a 892B      		or r24,r25
 1594 009c 8083      		st Z,r24
 1595 009e F5E0      		ldi r31,lo8(5)
 1596 00a0 FA95      	1:	dec r31
 1597 00a2 01F4      		brne 1b
 1598 00a4 0000      		nop
 1599 00a6 A881      		ld r26,Y
 1600 00a8 B981      		ldd r27,Y+1
 1601 00aa 1296      		adiw r26,2
 1602 00ac ED91      		ld r30,X+
 1603 00ae FC91      		ld r31,X
 1604 00b0 1397      		sbiw r26,2+1
 1605 00b2 9081      		ld r25,Z
 1606 00b4 1696      		adiw r26,6
 1607 00b6 8C91      		ld r24,X
 1608 00b8 8095      		com r24
 1609 00ba 8923      		and r24,r25
 1610 00bc 8083      		st Z,r24
 1611 00be 85E0      		ldi r24,lo8(5)
 1612 00c0 8A95      	1:	dec r24
 1613 00c2 01F4      		brne 1b
 1614 00c4 0000      		nop
 1615 00c6 612F      		mov r22,r17
 1616 00c8 6F70      		andi r22,lo8(15)
 1617 00ca 8E81      		ldd r24,Y+6
 1618 00cc 9F81      		ldd r25,Y+7
 1619               	.L157:
 1620 00ce 0E94 0000 		call _ZN7GpioBus5writeEh
 1621 00d2 A881      		ld r26,Y
 1622 00d4 B981      		ldd r27,Y+1
 1623 00d6 1296      		adiw r26,2
 1624 00d8 ED91      		ld r30,X+
 1625 00da FC91      		ld r31,X
 1626 00dc 1397      		sbiw r26,2+1
 1627 00de 8081      		ld r24,Z
 1628 00e0 1696      		adiw r26,6
 1629 00e2 9C91      		ld r25,X
 1630 00e4 892B      		or r24,r25
 1631 00e6 8083      		st Z,r24
 1632 00e8 E5E0      		ldi r30,lo8(5)
 1633 00ea EA95      	1:	dec r30
 1634 00ec 01F4      		brne 1b
 1635 00ee 0000      		nop
 1636 00f0 A881      		ld r26,Y
 1637 00f2 B981      		ldd r27,Y+1
GAS LISTING C:\Users\Aluno\AppData\Local\Temp\ccp3tIRI.s 			page 29


 1638 00f4 1296      		adiw r26,2
 1639 00f6 ED91      		ld r30,X+
 1640 00f8 FC91      		ld r31,X
 1641 00fa 1397      		sbiw r26,2+1
 1642 00fc 9081      		ld r25,Z
 1643 00fe 1696      		adiw r26,6
 1644 0100 8C91      		ld r24,X
 1645 0102 8095      		com r24
 1646 0104 8923      		and r24,r25
 1647 0106 8083      		st Z,r24
 1648 0108 F5E0      		ldi r31,lo8(5)
 1649 010a FA95      	1:	dec r31
 1650 010c 01F4      		brne 1b
 1651 010e 0000      		nop
 1652 0110 8B85      		ldd r24,Y+11
 1653 0112 81FD      		sbrc r24,1
 1654 0114 00C0      		rjmp .L159
 1655 0116 85ED      		ldi r24,lo8(-43)
 1656 0118 8A95      	1:	dec r24
 1657 011a 01F4      		brne 1b
 1658 011c 0000      		nop
 1659               	.L159:
 1660 011e 0023      		tst r16
 1661 0120 01F0      		breq .L155
 1662 0122 8D85      		ldd r24,Y+13
 1663 0124 8C5F      		subi r24,lo8(-(4))
 1664 0126 8D87      		std Y+13,r24
 1665               	.L155:
 1666 0128 81E0      		ldi r24,lo8(1)
 1667               	/* epilogue start */
 1668 012a DF91      		pop r29
 1669 012c CF91      		pop r28
 1670 012e 1F91      		pop r17
 1671 0130 0F91      		pop r16
 1672 0132 0895      		ret
 1674               		.section	.text._ZN7Hd4478018setCustomCharacterEhPKh,"ax",@progbits
 1675               	.global	_ZN7Hd4478018setCustomCharacterEhPKh
 1677               	_ZN7Hd4478018setCustomCharacterEhPKh:
 1678 0000 DF92      		push r13
 1679 0002 EF92      		push r14
 1680 0004 FF92      		push r15
 1681 0006 0F93      		push r16
 1682 0008 1F93      		push r17
 1683 000a CF93      		push r28
 1684 000c DF93      		push r29
 1685               	/* prologue: function */
 1686               	/* frame size = 0 */
 1687               	/* stack size = 7 */
 1688               	.L__stack_usage = 7
 1689 000e EC01      		movw r28,r24
 1690 0010 8885      		ldd r24,Y+8
 1691 0012 81FB      		bst r24,1
 1692 0014 DD24      		clr r13
 1693 0016 D0F8      		bld r13,0
 1694 0018 81FD      		sbrc r24,1
 1695 001a 00C0      		rjmp .L171
 1696 001c 84E0      		ldi r24,lo8(4)
GAS LISTING C:\Users\Aluno\AppData\Local\Temp\ccp3tIRI.s 			page 30


 1697 001e 90E0      		ldi r25,0
 1698 0020 9A87      		std Y+10,r25
 1699 0022 8987      		std Y+9,r24
 1700               	.L170:
 1701 0024 8D2D      		mov r24,r13
 1702               	/* epilogue start */
 1703 0026 DF91      		pop r29
 1704 0028 CF91      		pop r28
 1705 002a 1F91      		pop r17
 1706 002c 0F91      		pop r16
 1707 002e FF90      		pop r15
 1708 0030 EF90      		pop r14
 1709 0032 DF90      		pop r13
 1710 0034 0895      		ret
 1711               	.L171:
 1712 0036 7A01      		movw r14,r20
 1713 0038 8B85      		ldd r24,Y+11
 1714 003a 84FD      		sbrc r24,4
 1715 003c 00C0      		rjmp .L173
 1716 003e 6830      		cpi r22,lo8(8)
 1717 0040 00F4      		brsh .L178
 1718 0042 660F      		lsl r22
 1719 0044 660F      		lsl r22
 1720 0046 660F      		lsl r22
 1721 0048 6064      		ori r22,lo8(64)
 1722 004a CE01      		movw r24,r28
 1723 004c 0E94 0000 		call _ZN7Hd4478013_writeCommandEh
 1724 0050 8701      		movw r16,r14
 1725 0052 88E0      		ldi r24,8
 1726 0054 E80E      		add r14,r24
 1727 0056 F11C      		adc r15,__zero_reg__
 1728               	.L175:
 1729 0058 F801      		movw r30,r16
 1730 005a 6191      		ld r22,Z+
 1731 005c 8F01      		movw r16,r30
 1732 005e 40E0      		ldi r20,0
 1733 0060 CE01      		movw r24,r28
 1734 0062 0E94 0000 		call _ZN7Hd4478015_writeCharacterEhb
 1735 0066 E016      		cp r14,r16
 1736 0068 F106      		cpc r15,r17
 1737 006a 01F4      		brne .L175
 1738               	.L174:
 1739 006c 1A86      		std Y+10,__zero_reg__
 1740 006e 1986      		std Y+9,__zero_reg__
 1741 0070 00C0      		rjmp .L170
 1742               	.L173:
 1743 0072 6430      		cpi r22,lo8(4)
 1744 0074 00F4      		brsh .L178
 1745 0076 8AE0      		ldi r24,lo8(10)
 1746 0078 689F      		mul r22,r24
 1747 007a 602D      		mov r22,r0
 1748 007c 1124      		clr r1
 1749 007e 6064      		ori r22,lo8(64)
 1750 0080 CE01      		movw r24,r28
 1751 0082 0E94 0000 		call _ZN7Hd4478013_writeCommandEh
 1752 0086 8701      		movw r16,r14
 1753 0088 FAE0      		ldi r31,10
GAS LISTING C:\Users\Aluno\AppData\Local\Temp\ccp3tIRI.s 			page 31


 1754 008a EF0E      		add r14,r31
 1755 008c F11C      		adc r15,__zero_reg__
 1756               	.L176:
 1757 008e F801      		movw r30,r16
 1758 0090 6191      		ld r22,Z+
 1759 0092 8F01      		movw r16,r30
 1760 0094 40E0      		ldi r20,0
 1761 0096 CE01      		movw r24,r28
 1762 0098 0E94 0000 		call _ZN7Hd4478015_writeCharacterEhb
 1763 009c 0E15      		cp r16,r14
 1764 009e 1F05      		cpc r17,r15
 1765 00a0 01F4      		brne .L176
 1766 00a2 00C0      		rjmp .L174
 1767               	.L178:
 1768 00a4 D12C      		mov r13,__zero_reg__
 1769 00a6 00C0      		rjmp .L170
 1771               		.section	.text._ZN7Hd447805printEc,"ax",@progbits
 1772               	.global	_ZN7Hd447805printEc
 1774               	_ZN7Hd447805printEc:
 1775 0000 0F93      		push r16
 1776 0002 1F93      		push r17
 1777 0004 CF93      		push r28
 1778 0006 DF93      		push r29
 1779               	/* prologue: function */
 1780               	/* frame size = 0 */
 1781               	/* stack size = 4 */
 1782               	.L__stack_usage = 4
 1783 0008 EC01      		movw r28,r24
 1784 000a 8885      		ldd r24,Y+8
 1785 000c 81FB      		bst r24,1
 1786 000e 0027      		clr r16
 1787 0010 00F9      		bld r16,0
 1788 0012 81FD      		sbrc r24,1
 1789 0014 00C0      		rjmp .L181
 1790 0016 84E0      		ldi r24,lo8(4)
 1791 0018 90E0      		ldi r25,0
 1792 001a 9A87      		std Y+10,r25
 1793 001c 8987      		std Y+9,r24
 1794               	.L180:
 1795 001e 802F      		mov r24,r16
 1796               	/* epilogue start */
 1797 0020 DF91      		pop r29
 1798 0022 CF91      		pop r28
 1799 0024 1F91      		pop r17
 1800 0026 0F91      		pop r16
 1801 0028 0895      		ret
 1802               	.L181:
 1803 002a 6A30      		cpi r22,lo8(10)
 1804 002c 01F4      		brne .L183
 1805 002e 1D85      		ldd r17,Y+13
 1806 0030 1695      		lsr r17
 1807 0032 1695      		lsr r17
 1808               	.L185:
 1809 0034 8C85      		ldd r24,Y+12
 1810 0036 982F      		mov r25,r24
 1811 0038 9295      		swap r25
 1812 003a 9F70      		andi r25,lo8(15)
GAS LISTING C:\Users\Aluno\AppData\Local\Temp\ccp3tIRI.s 			page 32


 1813 003c 8D85      		ldd r24,Y+13
 1814 003e 8370      		andi r24,lo8(3)
 1815 0040 8295      		swap r24
 1816 0042 807F      		andi r24,lo8(-16)
 1817 0044 892B      		or r24,r25
 1818 0046 212F      		mov r18,r17
 1819 0048 30E0      		ldi r19,0
 1820 004a 8217      		cp r24,r18
 1821 004c 1306      		cpc __zero_reg__,r19
 1822 004e 04F0      		brlt .L184
 1823 0050 41E0      		ldi r20,lo8(1)
 1824 0052 60E2      		ldi r22,lo8(32)
 1825 0054 CE01      		movw r24,r28
 1826 0056 0E94 0000 		call _ZN7Hd4478015_writeCharacterEhb
 1827 005a 1F5F      		subi r17,lo8(-(1))
 1828 005c 00C0      		rjmp .L185
 1829               	.L184:
 1830 005e CE01      		movw r24,r28
 1831 0060 0E94 0000 		call _ZN7Hd4478018cursorMoveNextLineEv
 1832               	.L186:
 1833 0064 1A86      		std Y+10,__zero_reg__
 1834 0066 1986      		std Y+9,__zero_reg__
 1835 0068 00C0      		rjmp .L180
 1836               	.L183:
 1837 006a 41E0      		ldi r20,lo8(1)
 1838 006c CE01      		movw r24,r28
 1839 006e 0E94 0000 		call _ZN7Hd4478015_writeCharacterEhb
 1840 0072 00C0      		rjmp .L186
 1842               		.section	.text._ZL11lcdWriteStdcP6__file,"ax",@progbits
 1844               	_ZL11lcdWriteStdcP6__file:
 1845               	/* prologue: function */
 1846               	/* frame size = 0 */
 1847               	/* stack size = 0 */
 1848               	.L__stack_usage = 0
 1849 0000 682F      		mov r22,r24
 1850 0002 8091 0000 		lds r24,defaultDisplay
 1851 0006 9091 0000 		lds r25,defaultDisplay+1
 1852 000a 0E94 0000 		call _ZN7Hd447805printEc
 1853 000e 90E0      		ldi r25,0
 1854 0010 80E0      		ldi r24,0
 1855               	/* epilogue start */
 1856 0012 0895      		ret
 1858               		.section	.text._ZN7Hd447805printEPKc,"ax",@progbits
 1859               	.global	_ZN7Hd447805printEPKc
 1861               	_ZN7Hd447805printEPKc:
 1862 0000 EF92      		push r14
 1863 0002 FF92      		push r15
 1864 0004 0F93      		push r16
 1865 0006 1F93      		push r17
 1866 0008 CF93      		push r28
 1867 000a DF93      		push r29
 1868               	/* prologue: function */
 1869               	/* frame size = 0 */
 1870               	/* stack size = 6 */
 1871               	.L__stack_usage = 6
 1872 000c EC01      		movw r28,r24
 1873 000e 2885      		ldd r18,Y+8
GAS LISTING C:\Users\Aluno\AppData\Local\Temp\ccp3tIRI.s 			page 33


 1874 0010 21FB      		bst r18,1
 1875 0012 0027      		clr r16
 1876 0014 00F9      		bld r16,0
 1877 0016 7B01      		movw r14,r22
 1878 0018 10E0      		ldi r17,0
 1879 001a 21FD      		sbrc r18,1
 1880 001c 00C0      		rjmp .L189
 1881 001e 24E0      		ldi r18,lo8(4)
 1882 0020 30E0      		ldi r19,0
 1883 0022 3A87      		std Y+10,r19
 1884 0024 2987      		std Y+9,r18
 1885               	.L188:
 1886 0026 802F      		mov r24,r16
 1887               	/* epilogue start */
 1888 0028 DF91      		pop r29
 1889 002a CF91      		pop r28
 1890 002c 1F91      		pop r17
 1891 002e 0F91      		pop r16
 1892 0030 FF90      		pop r15
 1893 0032 EF90      		pop r14
 1894 0034 0895      		ret
 1895               	.L189:
 1896 0036 F701      		movw r30,r14
 1897 0038 E10F      		add r30,r17
 1898 003a F11D      		adc r31,__zero_reg__
 1899 003c 6081      		ld r22,Z
 1900 003e 6623      		tst r22
 1901 0040 01F0      		breq .L191
 1902 0042 CE01      		movw r24,r28
 1903 0044 0E94 0000 		call _ZN7Hd447805printEc
 1904 0048 1F5F      		subi r17,lo8(-(1))
 1905 004a 00C0      		rjmp .L189
 1906               	.L191:
 1907 004c 1A86      		std Y+10,__zero_reg__
 1908 004e 1986      		std Y+9,__zero_reg__
 1909 0050 00C0      		rjmp .L188
 1911               		.section	.rodata.CSWTCH.76,"a",@progbits
 1914               	CSWTCH.76:
 1915 0000 00        		.byte	0
 1916 0001 00        		.byte	0
 1917 0002 01        		.byte	1
 1918               		.section	.rodata.CSWTCH.75,"a",@progbits
 1921               	CSWTCH.75:
 1922 0000 00        		.byte	0
 1923 0001 01        		.byte	1
 1924 0002 01        		.byte	1
 1925               	.global	defaultDisplay
 1926               		.section	.bss.defaultDisplay,"aw",@nobits
 1929               	defaultDisplay:
 1930 0000 0000      		.zero	2
 1931               	.global	lcdStream
 1932               		.section	.bss.lcdStream,"aw",@nobits
 1935               	lcdStream:
 1936 0000 0000 0000 		.zero	14
 1936      0000 0000 
 1936      0000 0000 
 1936      0000 
GAS LISTING C:\Users\Aluno\AppData\Local\Temp\ccp3tIRI.s 			page 34


 1937               		.ident	"GCC: (AVR_8_bit_GNU_Toolchain_3.7.0_1796) 7.3.0"
 1938               	.global __do_copy_data
 1939               	.global __do_clear_bss
GAS LISTING C:\Users\Aluno\AppData\Local\Temp\ccp3tIRI.s 			page 35


DEFINED SYMBOLS
                            *ABS*:0000000000000000 funsapeLibHd44780.cpp
C:\Users\Aluno\AppData\Local\Temp\ccp3tIRI.s:2      *ABS*:000000000000003e __SP_H__
C:\Users\Aluno\AppData\Local\Temp\ccp3tIRI.s:3      *ABS*:000000000000003d __SP_L__
C:\Users\Aluno\AppData\Local\Temp\ccp3tIRI.s:4      *ABS*:000000000000003f __SREG__
C:\Users\Aluno\AppData\Local\Temp\ccp3tIRI.s:5      *ABS*:0000000000000000 __tmp_reg__
C:\Users\Aluno\AppData\Local\Temp\ccp3tIRI.s:6      *ABS*:0000000000000001 __zero_reg__
C:\Users\Aluno\AppData\Local\Temp\ccp3tIRI.s:11     .text._Z7getTickv:0000000000000000 _Z7getTickv
C:\Users\Aluno\AppData\Local\Temp\ccp3tIRI.s:25     .text._ZN7Hd44780C2Ev:0000000000000000 _ZN7Hd44780C2Ev
C:\Users\Aluno\AppData\Local\Temp\ccp3tIRI.s:1935   .bss.lcdStream:0000000000000000 lcdStream
C:\Users\Aluno\AppData\Local\Temp\ccp3tIRI.s:1844   .text._ZL11lcdWriteStdcP6__file:0000000000000000 _ZL11lcdWriteStdcP6__file
C:\Users\Aluno\AppData\Local\Temp\ccp3tIRI.s:25     .text._ZN7Hd44780C2Ev:0000000000000000 _ZN7Hd44780C1Ev
C:\Users\Aluno\AppData\Local\Temp\ccp3tIRI.s:80     .text._ZN7Hd44780D2Ev:0000000000000000 _ZN7Hd44780D2Ev
C:\Users\Aluno\AppData\Local\Temp\ccp3tIRI.s:80     .text._ZN7Hd44780D2Ev:0000000000000000 _ZN7Hd44780D1Ev
C:\Users\Aluno\AppData\Local\Temp\ccp3tIRI.s:93     .text._ZN7Hd4478014setControlPortEPK7GpioPinS2_S2_:0000000000000000 _ZN7Hd4478014setControlPortEPK7GpioPinS2_S2_
C:\Users\Aluno\AppData\Local\Temp\ccp3tIRI.s:170    .text._ZN7Hd4478011setDataPortEPK7GpioBus:0000000000000000 _ZN7Hd4478011setDataPortEPK7GpioBus
C:\Users\Aluno\AppData\Local\Temp\ccp3tIRI.s:245    .text._ZN7Hd447805stdioEv:0000000000000000 _ZN7Hd447805stdioEv
C:\Users\Aluno\AppData\Local\Temp\ccp3tIRI.s:1929   .bss.defaultDisplay:0000000000000000 defaultDisplay
C:\Users\Aluno\AppData\Local\Temp\ccp3tIRI.s:272    .text._ZN7Hd4478012getLastErrorEv:0000000000000000 _ZN7Hd4478012getLastErrorEv
C:\Users\Aluno\AppData\Local\Temp\ccp3tIRI.s:286    .text._ZN7Hd4478017_functionSet8BitsEh:0000000000000000 _ZN7Hd4478017_functionSet8BitsEh
C:\Users\Aluno\AppData\Local\Temp\ccp3tIRI.s:396    .text._ZN7Hd4478015_waitUntilReadyEv:0000000000000000 _ZN7Hd4478015_waitUntilReadyEv
C:\Users\Aluno\AppData\Local\Temp\ccp3tIRI.s:557    .text._ZN7Hd4478013_writeCommandEh:0000000000000000 _ZN7Hd4478013_writeCommandEh
C:\Users\Aluno\AppData\Local\Temp\ccp3tIRI.s:724    .text._ZN7Hd447804initENS_4SizeENS_4FontE:0000000000000000 _ZN7Hd447804initENS_4SizeENS_4FontE
C:\Users\Aluno\AppData\Local\Temp\ccp3tIRI.s:982    .text._ZN7Hd4478011clearScreenEv:0000000000000000 _ZN7Hd4478011clearScreenEv
C:\Users\Aluno\AppData\Local\Temp\ccp3tIRI.s:1024   .text._ZN7Hd4478010cursorGoToEhh:0000000000000000 _ZN7Hd4478010cursorGoToEhh
C:\Users\Aluno\AppData\Local\Temp\ccp3tIRI.s:1145   .text._ZN7Hd4478018cursorMoveNextLineEv:0000000000000000 _ZN7Hd4478018cursorMoveNextLineEv
C:\Users\Aluno\AppData\Local\Temp\ccp3tIRI.s:1194   .text._ZN7Hd4478010cursorHomeEv:0000000000000000 _ZN7Hd4478010cursorHomeEv
C:\Users\Aluno\AppData\Local\Temp\ccp3tIRI.s:1236   .text._ZN7Hd4478019cursorMoveFirstLineEv:0000000000000000 _ZN7Hd4478019cursorMoveFirstLineEv
C:\Users\Aluno\AppData\Local\Temp\ccp3tIRI.s:1246   .text._ZN7Hd4478010cursorMoveE9Direction:0000000000000000 _ZN7Hd4478010cursorMoveE9Direction
C:\Users\Aluno\AppData\Local\Temp\ccp3tIRI.s:1309   .text._ZN7Hd4478015setDisplayStateENS_12DisplayStateE:0000000000000000 _ZN7Hd4478015setDisplayStateENS_12DisplayStateE
C:\Users\Aluno\AppData\Local\Temp\ccp3tIRI.s:1921   .rodata.CSWTCH.75:0000000000000000 CSWTCH.75
C:\Users\Aluno\AppData\Local\Temp\ccp3tIRI.s:1914   .rodata.CSWTCH.76:0000000000000000 CSWTCH.76
C:\Users\Aluno\AppData\Local\Temp\ccp3tIRI.s:1390   .text._ZN7Hd4478012displayShiftE9Direction:0000000000000000 _ZN7Hd4478012displayShiftE9Direction
C:\Users\Aluno\AppData\Local\Temp\ccp3tIRI.s:1453   .text._ZN7Hd4478012setEntryModeENS_4StepENS_11DisplayModeE:0000000000000000 _ZN7Hd4478012setEntryModeENS_4StepENS_11DisplayModeE
C:\Users\Aluno\AppData\Local\Temp\ccp3tIRI.s:1510   .text._ZN7Hd4478015_writeCharacterEhb:0000000000000000 _ZN7Hd4478015_writeCharacterEhb
C:\Users\Aluno\AppData\Local\Temp\ccp3tIRI.s:1677   .text._ZN7Hd4478018setCustomCharacterEhPKh:0000000000000000 _ZN7Hd4478018setCustomCharacterEhPKh
C:\Users\Aluno\AppData\Local\Temp\ccp3tIRI.s:1774   .text._ZN7Hd447805printEc:0000000000000000 _ZN7Hd447805printEc
C:\Users\Aluno\AppData\Local\Temp\ccp3tIRI.s:1861   .text._ZN7Hd447805printEPKc:0000000000000000 _ZN7Hd447805printEPKc

UNDEFINED SYMBOLS
_ZN7GpioBus10getBusSizeEv
__iob
_ZN7GpioBus5writeEh
_ZN7GpioBus7setModeENS_4ModeE
_ZN7GpioPin7setModeENS_4ModeE
__divmodhi4
__do_copy_data
__do_clear_bss
