GAS LISTING C:\Users\Docker\AppData\Local\Temp\ccXRUTyw.s 			page 1


   1               		.file	"funsapeLibSystemStatus.cpp"
   2               	__SP_H__ = 0x3e
   3               	__SP_L__ = 0x3d
   4               	__SREG__ = 0x3f
   5               	__tmp_reg__ = 0
   6               	__zero_reg__ = 1
   7               		.text
   8               		.section	.text._Z7getTickv,"ax",@progbits
   9               		.weak	_Z7getTickv
  11               	_Z7getTickv:
  12               	/* prologue: function */
  13               	/* frame size = 0 */
  14               	/* stack size = 0 */
  15               	.L__stack_usage = 0
  16 0000 60E0      		ldi r22,0
  17 0002 70E0      		ldi r23,0
  18 0004 CB01      		movw r24,r22
  19               	/* epilogue start */
  20 0006 0895      		ret
  22               		.section	.text._ZN12SystemStatusC2Em,"ax",@progbits
  23               	.global	_ZN12SystemStatusC2Em
  25               	_ZN12SystemStatusC2Em:
  26               	/* prologue: function */
  27               	/* frame size = 0 */
  28               	/* stack size = 0 */
  29               	.L__stack_usage = 0
  30 0000 FC01      		movw r30,r24
  31 0002 8285      		ldd r24,Z+10
  32 0004 8E7F      		andi r24,lo8(~(1<<0))
  33 0006 8287      		std Z+10,r24
  34 0008 1682      		std Z+6,__zero_reg__
  35 000a 1782      		std Z+7,__zero_reg__
  36 000c 1086      		std Z+8,__zero_reg__
  37 000e 1186      		std Z+9,__zero_reg__
  38 0010 1082      		st Z,__zero_reg__
  39 0012 1182      		std Z+1,__zero_reg__
  40 0014 1282      		std Z+2,__zero_reg__
  41 0016 1382      		std Z+3,__zero_reg__
  42 0018 1582      		std Z+5,__zero_reg__
  43 001a 1482      		std Z+4,__zero_reg__
  44 001c 1786      		std Z+15,__zero_reg__
  45 001e 108A      		std Z+16,__zero_reg__
  46 0020 118A      		std Z+17,__zero_reg__
  47 0022 128A      		std Z+18,__zero_reg__
  48 0024 1386      		std Z+11,__zero_reg__
  49 0026 1486      		std Z+12,__zero_reg__
  50 0028 1586      		std Z+13,__zero_reg__
  51 002a 1686      		std Z+14,__zero_reg__
  52 002c 9389      		ldd r25,Z+19
  53 002e 9E7F      		andi r25,lo8(~(1<<0))
  54 0030 938B      		std Z+19,r25
  55 0032 4115      		cp r20,__zero_reg__
  56 0034 5105      		cpc r21,__zero_reg__
  57 0036 6105      		cpc r22,__zero_reg__
  58 0038 7105      		cpc r23,__zero_reg__
  59 003a 01F4      		brne .L3
  60 003c 83E3      		ldi r24,lo8(51)
GAS LISTING C:\Users\Docker\AppData\Local\Temp\ccXRUTyw.s 			page 2


  61 003e 90E0      		ldi r25,0
  62 0040 958B      		std Z+21,r25
  63 0042 848B      		std Z+20,r24
  64 0044 0895      		ret
  65               	.L3:
  66 0046 4083      		st Z,r20
  67 0048 5183      		std Z+1,r21
  68 004a 6283      		std Z+2,r22
  69 004c 7383      		std Z+3,r23
  70 004e 4683      		std Z+6,r20
  71 0050 5783      		std Z+7,r21
  72 0052 6087      		std Z+8,r22
  73 0054 7187      		std Z+9,r23
  74 0056 8160      		ori r24,lo8(1<<0)
  75 0058 8287      		std Z+10,r24
  76 005a 158A      		std Z+21,__zero_reg__
  77 005c 148A      		std Z+20,__zero_reg__
  78               	/* epilogue start */
  79 005e 0895      		ret
  81               	.global	_ZN12SystemStatusC1Em
  82               		.set	_ZN12SystemStatusC1Em,_ZN12SystemStatusC2Em
  83               		.section	.text._ZN12SystemStatusD2Ev,"ax",@progbits
  84               	.global	_ZN12SystemStatusD2Ev
  86               	_ZN12SystemStatusD2Ev:
  87               	/* prologue: function */
  88               	/* frame size = 0 */
  89               	/* stack size = 0 */
  90               	.L__stack_usage = 0
  91               	/* epilogue start */
  92 0000 0895      		ret
  94               	.global	_ZN12SystemStatusD1Ev
  95               		.set	_ZN12SystemStatusD1Ev,_ZN12SystemStatusD2Ev
  96               		.section	.text._ZN12SystemStatus11getCpuClockEPm,"ax",@progbits
  97               	.global	_ZN12SystemStatus11getCpuClockEPm
  99               	_ZN12SystemStatus11getCpuClockEPm:
 100 0000 CF93      		push r28
 101 0002 DF93      		push r29
 102               	/* prologue: function */
 103               	/* frame size = 0 */
 104               	/* stack size = 2 */
 105               	.L__stack_usage = 2
 106 0004 FC01      		movw r30,r24
 107 0006 6115      		cp r22,__zero_reg__
 108 0008 7105      		cpc r23,__zero_reg__
 109 000a 01F4      		brne .L7
 110 000c 81E1      		ldi r24,lo8(17)
 111 000e 90E0      		ldi r25,0
 112 0010 958B      		std Z+21,r25
 113 0012 848B      		std Z+20,r24
 114 0014 80E0      		ldi r24,0
 115               	.L6:
 116               	/* epilogue start */
 117 0016 DF91      		pop r29
 118 0018 CF91      		pop r28
 119 001a 0895      		ret
 120               	.L7:
 121 001c 8681      		ldd r24,Z+6
GAS LISTING C:\Users\Docker\AppData\Local\Temp\ccXRUTyw.s 			page 3


 122 001e 9781      		ldd r25,Z+7
 123 0020 A085      		ldd r26,Z+8
 124 0022 B185      		ldd r27,Z+9
 125 0024 EB01      		movw r28,r22
 126 0026 8883      		st Y,r24
 127 0028 9983      		std Y+1,r25
 128 002a AA83      		std Y+2,r26
 129 002c BB83      		std Y+3,r27
 130 002e 158A      		std Z+21,__zero_reg__
 131 0030 148A      		std Z+20,__zero_reg__
 132 0032 81E0      		ldi r24,lo8(1)
 133 0034 00C0      		rjmp .L6
 135               		.section	.text._ZN12SystemStatus12getLastErrorEv,"ax",@progbits
 136               	.global	_ZN12SystemStatus12getLastErrorEv
 138               	_ZN12SystemStatus12getLastErrorEv:
 139               	/* prologue: function */
 140               	/* frame size = 0 */
 141               	/* stack size = 0 */
 142               	.L__stack_usage = 0
 143 0000 FC01      		movw r30,r24
 144 0002 8489      		ldd r24,Z+20
 145 0004 9589      		ldd r25,Z+21
 146               	/* epilogue start */
 147 0006 0895      		ret
 149               		.section	.text._ZN12SystemStatus17setClockPrescalerENS_14ClockPrescalerE,"ax",@progbits
 150               	.global	_ZN12SystemStatus17setClockPrescalerENS_14ClockPrescalerE
 152               	_ZN12SystemStatus17setClockPrescalerENS_14ClockPrescalerE:
 153 0000 CF93      		push r28
 154 0002 DF93      		push r29
 155               	/* prologue: function */
 156               	/* frame size = 0 */
 157               	/* stack size = 2 */
 158               	.L__stack_usage = 2
 159 0004 EC01      		movw r28,r24
 160 0006 6830      		cpi r22,8
 161 0008 7105      		cpc r23,__zero_reg__
 162 000a 00F0      		brlo .+2
 163 000c 00C0      		rjmp .L11
 164 000e FB01      		movw r30,r22
 165 0010 E050      		subi r30,lo8(-(gs(.L13)))
 166 0012 F040      		sbci r31,hi8(-(gs(.L13)))
 167 0014 0C94 0000 		jmp __tablejump2__
 168               		.p2align	1
 169               	.L13:
 170 0018 0000      		.word gs(.L12)
 171 001a 0000      		.word gs(.L14)
 172 001c 0000      		.word gs(.L23)
 173 001e 0000      		.word gs(.L16)
 174 0020 0000      		.word gs(.L17)
 175 0022 0000      		.word gs(.L18)
 176 0024 0000      		.word gs(.L19)
 177 0026 0000      		.word gs(.L20)
 178               	.L14:
 179 0028 22E0      		ldi r18,lo8(2)
 180 002a 30E0      		ldi r19,0
 181 002c 81E0      		ldi r24,lo8(1)
 182               	.L15:
GAS LISTING C:\Users\Docker\AppData\Local\Temp\ccXRUTyw.s 			page 4


 183 002e 9FB7      		in r25,__SREG__
 184               	/* #APP */
 185               	 ;  50 "c:\users\docker\desktop\micro\vscode-win\toolchains\avr-gcc\avr\include\util\atomic.h" 1
 186 0030 F894      		cli
 187               	 ;  0 "" 2
 188               	/* #NOAPP */
 189 0032 40E8      		ldi r20,lo8(-128)
 190 0034 4093 6100 		sts 97,r20
 191 0038 8093 6100 		sts 97,r24
 192 003c 9FBF      		out __SREG__,r25
 193               	/* #APP */
 194               	 ;  1535 "funsape/util/../funsapeLibGlobalDefines.hpp" 1
 195 003e 0000      		nop
 196               	 ;  0 "" 2
 197               	/* #NOAPP */
 198 0040 9091 6100 		lds r25,97
 199 0044 9F77      		andi r25,lo8(127)
 200 0046 8917      		cp r24,r25
 201 0048 01F0      		breq .L22
 202 004a 80E3      		ldi r24,lo8(48)
 203 004c 90E0      		ldi r25,0
 204 004e 00C0      		rjmp .L24
 205               	.L16:
 206 0050 28E0      		ldi r18,lo8(8)
 207 0052 30E0      		ldi r19,0
 208 0054 83E0      		ldi r24,lo8(3)
 209 0056 00C0      		rjmp .L15
 210               	.L17:
 211 0058 20E2      		ldi r18,lo8(32)
 212 005a 30E0      		ldi r19,0
 213 005c 84E0      		ldi r24,lo8(4)
 214 005e 00C0      		rjmp .L15
 215               	.L18:
 216 0060 20E4      		ldi r18,lo8(64)
 217 0062 30E0      		ldi r19,0
 218 0064 85E0      		ldi r24,lo8(5)
 219 0066 00C0      		rjmp .L15
 220               	.L19:
 221 0068 20E8      		ldi r18,lo8(-128)
 222 006a 30E0      		ldi r19,0
 223 006c 86E0      		ldi r24,lo8(6)
 224 006e 00C0      		rjmp .L15
 225               	.L20:
 226 0070 20E0      		ldi r18,0
 227 0072 31E0      		ldi r19,lo8(1)
 228 0074 87E0      		ldi r24,lo8(7)
 229 0076 00C0      		rjmp .L15
 230               	.L11:
 231 0078 81E3      		ldi r24,lo8(49)
 232 007a 90E0      		ldi r25,0
 233               	.L24:
 234 007c 9D8B      		std Y+21,r25
 235 007e 8C8B      		std Y+20,r24
 236 0080 80E0      		ldi r24,0
 237               	.L10:
 238               	/* epilogue start */
 239 0082 DF91      		pop r29
GAS LISTING C:\Users\Docker\AppData\Local\Temp\ccXRUTyw.s 			page 5


 240 0084 CF91      		pop r28
 241 0086 0895      		ret
 242               	.L12:
 243 0088 21E0      		ldi r18,lo8(1)
 244 008a 30E0      		ldi r19,0
 245 008c 80E0      		ldi r24,0
 246 008e 00C0      		rjmp .L15
 247               	.L23:
 248 0090 24E0      		ldi r18,lo8(4)
 249 0092 30E0      		ldi r19,0
 250 0094 82E0      		ldi r24,lo8(2)
 251 0096 00C0      		rjmp .L15
 252               	.L22:
 253 0098 7D83      		std Y+5,r23
 254 009a 6C83      		std Y+4,r22
 255 009c 50E0      		ldi r21,0
 256 009e 40E0      		ldi r20,0
 257 00a0 6881      		ld r22,Y
 258 00a2 7981      		ldd r23,Y+1
 259 00a4 8A81      		ldd r24,Y+2
 260 00a6 9B81      		ldd r25,Y+3
 261 00a8 0E94 0000 		call __udivmodsi4
 262 00ac 2E83      		std Y+6,r18
 263 00ae 3F83      		std Y+7,r19
 264 00b0 4887      		std Y+8,r20
 265 00b2 5987      		std Y+9,r21
 266 00b4 1D8A      		std Y+21,__zero_reg__
 267 00b6 1C8A      		std Y+20,__zero_reg__
 268 00b8 81E0      		ldi r24,lo8(1)
 269 00ba 00C0      		rjmp .L10
 271               		.section	.text.startup._GLOBAL__sub_I_systemStatus,"ax",@progbits
 273               	_GLOBAL__sub_I_systemStatus:
 274               	/* prologue: function */
 275               	/* frame size = 0 */
 276               	/* stack size = 0 */
 277               	.L__stack_usage = 0
 278 0000 40E0      		ldi r20,0
 279 0002 54E2      		ldi r21,lo8(36)
 280 0004 64EF      		ldi r22,lo8(-12)
 281 0006 70E0      		ldi r23,0
 282 0008 80E0      		ldi r24,lo8(systemStatus)
 283 000a 90E0      		ldi r25,hi8(systemStatus)
 284 000c 0C94 0000 		jmp _ZN12SystemStatusC1Em
 286               		.global __do_global_ctors
 287               		.section .ctors,"a",@progbits
 288               		.p2align	1
 289 0000 0000      		.word	gs(_GLOBAL__sub_I_systemStatus)
 290               	.global	systemStatus
 291               		.section	.bss.systemStatus,"aw",@nobits
 294               	systemStatus:
 295 0000 0000 0000 		.zero	22
 295      0000 0000 
 295      0000 0000 
 295      0000 0000 
 295      0000 0000 
 296               		.ident	"GCC: (AVR_8_bit_GNU_Toolchain_3.7.0_1796) 7.3.0"
 297               	.global __do_clear_bss
GAS LISTING C:\Users\Docker\AppData\Local\Temp\ccXRUTyw.s 			page 6


GAS LISTING C:\Users\Docker\AppData\Local\Temp\ccXRUTyw.s 			page 7


DEFINED SYMBOLS
                            *ABS*:0000000000000000 funsapeLibSystemStatus.cpp
C:\Users\Docker\AppData\Local\Temp\ccXRUTyw.s:2      *ABS*:000000000000003e __SP_H__
C:\Users\Docker\AppData\Local\Temp\ccXRUTyw.s:3      *ABS*:000000000000003d __SP_L__
C:\Users\Docker\AppData\Local\Temp\ccXRUTyw.s:4      *ABS*:000000000000003f __SREG__
C:\Users\Docker\AppData\Local\Temp\ccXRUTyw.s:5      *ABS*:0000000000000000 __tmp_reg__
C:\Users\Docker\AppData\Local\Temp\ccXRUTyw.s:6      *ABS*:0000000000000001 __zero_reg__
C:\Users\Docker\AppData\Local\Temp\ccXRUTyw.s:11     .text._Z7getTickv:0000000000000000 _Z7getTickv
C:\Users\Docker\AppData\Local\Temp\ccXRUTyw.s:25     .text._ZN12SystemStatusC2Em:0000000000000000 _ZN12SystemStatusC2Em
C:\Users\Docker\AppData\Local\Temp\ccXRUTyw.s:25     .text._ZN12SystemStatusC2Em:0000000000000000 _ZN12SystemStatusC1Em
C:\Users\Docker\AppData\Local\Temp\ccXRUTyw.s:86     .text._ZN12SystemStatusD2Ev:0000000000000000 _ZN12SystemStatusD2Ev
C:\Users\Docker\AppData\Local\Temp\ccXRUTyw.s:86     .text._ZN12SystemStatusD2Ev:0000000000000000 _ZN12SystemStatusD1Ev
C:\Users\Docker\AppData\Local\Temp\ccXRUTyw.s:99     .text._ZN12SystemStatus11getCpuClockEPm:0000000000000000 _ZN12SystemStatus11getCpuClockEPm
C:\Users\Docker\AppData\Local\Temp\ccXRUTyw.s:138    .text._ZN12SystemStatus12getLastErrorEv:0000000000000000 _ZN12SystemStatus12getLastErrorEv
C:\Users\Docker\AppData\Local\Temp\ccXRUTyw.s:152    .text._ZN12SystemStatus17setClockPrescalerENS_14ClockPrescalerE:0000000000000000 _ZN12SystemStatus17setClockPrescalerENS_14ClockPrescalerE
C:\Users\Docker\AppData\Local\Temp\ccXRUTyw.s:273    .text.startup._GLOBAL__sub_I_systemStatus:0000000000000000 _GLOBAL__sub_I_systemStatus
C:\Users\Docker\AppData\Local\Temp\ccXRUTyw.s:294    .bss.systemStatus:0000000000000000 systemStatus

UNDEFINED SYMBOLS
__tablejump2__
__udivmodsi4
__do_global_ctors
__do_clear_bss
