GAS LISTING C:\Users\Docker\AppData\Local\Temp\ccyV497j.s 			page 1


   1               		.file	"funsapeLibMath.cpp"
   2               	__SP_H__ = 0x3e
   3               	__SP_L__ = 0x3d
   4               	__SREG__ = 0x3f
   5               	__tmp_reg__ = 0
   6               	__zero_reg__ = 1
   7               		.text
   8               		.section	.text._Z7getTickv,"ax",@progbits
   9               		.weak	_Z7getTickv
  11               	_Z7getTickv:
  12               	/* prologue: function */
  13               	/* frame size = 0 */
  14               	/* stack size = 0 */
  15               	.L__stack_usage = 0
  16 0000 60E0      		ldi r22,0
  17 0002 70E0      		ldi r23,0
  18 0004 CB01      		movw r24,r22
  19               	/* epilogue start */
  20 0006 0895      		ret
  22               		.section	.text._Z11integerSinej,"ax",@progbits
  23               	.global	_Z11integerSinej
  25               	_Z11integerSinej:
  26               	/* prologue: function */
  27               	/* frame size = 0 */
  28               	/* stack size = 0 */
  29               	.L__stack_usage = 0
  30 0000 E8E6      		ldi r30,lo8(104)
  31 0002 F1E0      		ldi r31,lo8(1)
  32 0004 BF01      		movw r22,r30
  33 0006 0E94 0000 		call __udivmodhi4
  34 000a 8B35      		cpi r24,91
  35 000c 9105      		cpc r25,__zero_reg__
  36 000e 00F4      		brsh .L3
  37 0010 880F      		lsl r24
  38 0012 991F      		rol r25
  39 0014 FC01      		movw r30,r24
  40               	.L7:
  41 0016 E050      		subi r30,lo8(-(_ZL9sineTable))
  42 0018 F040      		sbci r31,hi8(-(_ZL9sineTable))
  43 001a 8081      		ld r24,Z
  44 001c 9181      		ldd r25,Z+1
  45 001e 0895      		ret
  46               	.L3:
  47 0020 853B      		cpi r24,-75
  48 0022 9105      		cpc r25,__zero_reg__
  49 0024 00F4      		brsh .L5
  50 0026 E4EB      		ldi r30,lo8(-76)
  51 0028 F0E0      		ldi r31,0
  52 002a E81B      		sub r30,r24
  53 002c F90B      		sbc r31,r25
  54 002e EE0F      		lsl r30
  55 0030 FF1F      		rol r31
  56 0032 00C0      		rjmp .L7
  57               	.L5:
  58 0034 8E30      		cpi r24,14
  59 0036 21E0      		ldi r18,1
  60 0038 9207      		cpc r25,r18
GAS LISTING C:\Users\Docker\AppData\Local\Temp\ccyV497j.s 			page 2


  61 003a 00F4      		brsh .L6
  62 003c 880F      		lsl r24
  63 003e 991F      		rol r25
  64 0040 FC01      		movw r30,r24
  65 0042 E050      		subi r30,lo8(-(_ZL9sineTable-360))
  66 0044 F040      		sbci r31,hi8(-(_ZL9sineTable-360))
  67               	.L8:
  68 0046 8081      		ld r24,Z
  69 0048 9181      		ldd r25,Z+1
  70 004a 9195      		neg r25
  71 004c 8195      		neg r24
  72 004e 9109      		sbc r25,__zero_reg__
  73               	/* epilogue start */
  74 0050 0895      		ret
  75               	.L6:
  76 0052 E81B      		sub r30,r24
  77 0054 F90B      		sbc r31,r25
  78 0056 EE0F      		lsl r30
  79 0058 FF1F      		rol r31
  80 005a E050      		subi r30,lo8(-(_ZL9sineTable))
  81 005c F040      		sbci r31,hi8(-(_ZL9sineTable))
  82 005e 00C0      		rjmp .L8
  84               		.section	.rodata._ZL9sineTable,"a",@progbits
  87               	_ZL9sineTable:
  88 0000 0000      		.word	0
  89 0002 1100      		.word	17
  90 0004 2200      		.word	34
  91 0006 3400      		.word	52
  92 0008 4500      		.word	69
  93 000a 5700      		.word	87
  94 000c 6800      		.word	104
  95 000e 7900      		.word	121
  96 0010 8B00      		.word	139
  97 0012 9C00      		.word	156
  98 0014 AD00      		.word	173
  99 0016 BE00      		.word	190
 100 0018 CF00      		.word	207
 101 001a E000      		.word	224
 102 001c F100      		.word	241
 103 001e 0201      		.word	258
 104 0020 1301      		.word	275
 105 0022 2401      		.word	292
 106 0024 3501      		.word	309
 107 0026 4501      		.word	325
 108 0028 5601      		.word	342
 109 002a 6601      		.word	358
 110 002c 7601      		.word	374
 111 002e 8601      		.word	390
 112 0030 9601      		.word	406
 113 0032 A601      		.word	422
 114 0034 B601      		.word	438
 115 0036 C501      		.word	453
 116 0038 D501      		.word	469
 117 003a E401      		.word	484
 118 003c F301      		.word	499
 119 003e 0302      		.word	515
 120 0040 1102      		.word	529
GAS LISTING C:\Users\Docker\AppData\Local\Temp\ccyV497j.s 			page 3


 121 0042 2002      		.word	544
 122 0044 2F02      		.word	559
 123 0046 3D02      		.word	573
 124 0048 4B02      		.word	587
 125 004a 5902      		.word	601
 126 004c 6702      		.word	615
 127 004e 7502      		.word	629
 128 0050 8202      		.word	642
 129 0052 9002      		.word	656
 130 0054 9D02      		.word	669
 131 0056 A902      		.word	681
 132 0058 B602      		.word	694
 133 005a C302      		.word	707
 134 005c CF02      		.word	719
 135 005e DB02      		.word	731
 136 0060 E702      		.word	743
 137 0062 F202      		.word	754
 138 0064 FE02      		.word	766
 139 0066 0903      		.word	777
 140 0068 1403      		.word	788
 141 006a 1E03      		.word	798
 142 006c 2903      		.word	809
 143 006e 3303      		.word	819
 144 0070 3D03      		.word	829
 145 0072 4603      		.word	838
 146 0074 5003      		.word	848
 147 0076 5903      		.word	857
 148 0078 6203      		.word	866
 149 007a 6A03      		.word	874
 150 007c 7203      		.word	882
 151 007e 7B03      		.word	891
 152 0080 8203      		.word	898
 153 0082 8A03      		.word	906
 154 0084 9103      		.word	913
 155 0086 9803      		.word	920
 156 0088 9F03      		.word	927
 157 008a A503      		.word	933
 158 008c AB03      		.word	939
 159 008e B103      		.word	945
 160 0090 B703      		.word	951
 161 0092 BC03      		.word	956
 162 0094 C103      		.word	961
 163 0096 C503      		.word	965
 164 0098 CA03      		.word	970
 165 009a CE03      		.word	974
 166 009c D203      		.word	978
 167 009e D503      		.word	981
 168 00a0 D803      		.word	984
 169 00a2 DB03      		.word	987
 170 00a4 DE03      		.word	990
 171 00a6 E003      		.word	992
 172 00a8 E203      		.word	994
 173 00aa E403      		.word	996
 174 00ac E503      		.word	997
 175 00ae E603      		.word	998
 176 00b0 E703      		.word	999
 177 00b2 E703      		.word	999
GAS LISTING C:\Users\Docker\AppData\Local\Temp\ccyV497j.s 			page 4


 178 00b4 E803      		.word	1000
 179               		.ident	"GCC: (AVR_8_bit_GNU_Toolchain_3.7.0_1796) 7.3.0"
 180               	.global __do_copy_data
GAS LISTING C:\Users\Docker\AppData\Local\Temp\ccyV497j.s 			page 5


DEFINED SYMBOLS
                            *ABS*:0000000000000000 funsapeLibMath.cpp
C:\Users\Docker\AppData\Local\Temp\ccyV497j.s:2      *ABS*:000000000000003e __SP_H__
C:\Users\Docker\AppData\Local\Temp\ccyV497j.s:3      *ABS*:000000000000003d __SP_L__
C:\Users\Docker\AppData\Local\Temp\ccyV497j.s:4      *ABS*:000000000000003f __SREG__
C:\Users\Docker\AppData\Local\Temp\ccyV497j.s:5      *ABS*:0000000000000000 __tmp_reg__
C:\Users\Docker\AppData\Local\Temp\ccyV497j.s:6      *ABS*:0000000000000001 __zero_reg__
C:\Users\Docker\AppData\Local\Temp\ccyV497j.s:11     .text._Z7getTickv:0000000000000000 _Z7getTickv
C:\Users\Docker\AppData\Local\Temp\ccyV497j.s:25     .text._Z11integerSinej:0000000000000000 _Z11integerSinej
C:\Users\Docker\AppData\Local\Temp\ccyV497j.s:87     .rodata._ZL9sineTable:0000000000000000 _ZL9sineTable

UNDEFINED SYMBOLS
__udivmodhi4
__do_copy_data
