GAS LISTING C:\Users\Aluno\AppData\Local\Temp\ccDFeSWb.s 			page 1


   1               		.file	"funsapeLibDs1307.cpp"
   2               	__SP_H__ = 0x3e
   3               	__SP_L__ = 0x3d
   4               	__SREG__ = 0x3f
   5               	__tmp_reg__ = 0
   6               	__zero_reg__ = 1
   7               		.text
   8               		.section	.text._Z7getTickv,"ax",@progbits
   9               		.weak	_Z7getTickv
  11               	_Z7getTickv:
  12               	/* prologue: function */
  13               	/* frame size = 0 */
  14               	/* stack size = 0 */
  15               	.L__stack_usage = 0
  16 0000 60E0      		ldi r22,0
  17 0002 70E0      		ldi r23,0
  18 0004 CB01      		movw r24,r22
  19               	/* epilogue start */
  20 0006 0895      		ret
  22               		.section	.text._ZN6Ds1307D2Ev,"ax",@progbits
  23               	.global	_ZN6Ds1307D2Ev
  25               	_ZN6Ds1307D2Ev:
  26               	/* prologue: function */
  27               	/* frame size = 0 */
  28               	/* stack size = 0 */
  29               	.L__stack_usage = 0
  30 0000 0796      		adiw r24,7
  31 0002 0C94 0000 		jmp _ZN8DateTimeD1Ev
  33               	.global	_ZN6Ds1307D1Ev
  34               		.set	_ZN6Ds1307D1Ev,_ZN6Ds1307D2Ev
  35               		.section	.text._ZN6Ds130712getLastErrorEv,"ax",@progbits
  36               	.global	_ZN6Ds130712getLastErrorEv
  38               	_ZN6Ds130712getLastErrorEv:
  39               	/* prologue: function */
  40               	/* frame size = 0 */
  41               	/* stack size = 0 */
  42               	.L__stack_usage = 0
  43 0000 FC01      		movw r30,r24
  44 0002 8381      		ldd r24,Z+3
  45 0004 9481      		ldd r25,Z+4
  46               	/* epilogue start */
  47 0006 0895      		ret
  49               		.section	.text._ZN6Ds130710getRamDataEhPhh,"ax",@progbits
  50               	.global	_ZN6Ds130710getRamDataEhPhh
  52               	_ZN6Ds130710getRamDataEhPhh:
  53 0000 CF92      		push r12
  54 0002 DF92      		push r13
  55 0004 EF92      		push r14
  56 0006 FF92      		push r15
  57 0008 0F93      		push r16
  58 000a 1F93      		push r17
  59 000c CF93      		push r28
  60 000e DF93      		push r29
  61               	/* prologue: function */
  62               	/* frame size = 0 */
  63               	/* stack size = 8 */
  64               	.L__stack_usage = 8
GAS LISTING C:\Users\Aluno\AppData\Local\Temp\ccDFeSWb.s 			page 2


  65 0010 FC01      		movw r30,r24
  66 0012 81E1      		ldi r24,lo8(17)
  67 0014 90E0      		ldi r25,0
  68 0016 4115      		cp r20,__zero_reg__
  69 0018 5105      		cpc r21,__zero_reg__
  70 001a 01F0      		breq .L15
  71 001c 2111      		cpse r18,__zero_reg__
  72 001e 00C0      		rjmp .L7
  73 0020 80E1      		ldi r24,lo8(16)
  74 0022 90E0      		ldi r25,0
  75               	.L15:
  76 0024 9483      		std Z+4,r25
  77 0026 8383      		std Z+3,r24
  78 0028 C0E0      		ldi r28,0
  79               	.L4:
  80 002a 8C2F      		mov r24,r28
  81               	/* epilogue start */
  82 002c DF91      		pop r29
  83 002e CF91      		pop r28
  84 0030 1F91      		pop r17
  85 0032 0F91      		pop r16
  86 0034 FF90      		pop r15
  87 0036 EF90      		pop r14
  88 0038 DF90      		pop r13
  89 003a CF90      		pop r12
  90 003c 0895      		ret
  91               	.L7:
  92 003e 2933      		cpi r18,lo8(57)
  93 0040 00F0      		brlo .L8
  94               	.L10:
  95 0042 85E2      		ldi r24,lo8(37)
  96 0044 90E0      		ldi r25,0
  97 0046 00C0      		rjmp .L15
  98               	.L8:
  99 0048 82E1      		ldi r24,lo8(18)
 100 004a 90E0      		ldi r25,0
 101 004c 6833      		cpi r22,lo8(56)
 102 004e 00F4      		brsh .L15
 103 0050 022F      		mov r16,r18
 104 0052 10E0      		ldi r17,0
 105 0054 C801      		movw r24,r16
 106 0056 860F      		add r24,r22
 107 0058 911D      		adc r25,__zero_reg__
 108 005a C997      		sbiw r24,57
 109 005c 04F4      		brge .L10
 110 005e 7A01      		movw r14,r20
 111 0060 D62F      		mov r29,r22
 112 0062 6F01      		movw r12,r30
 113 0064 8081      		ld r24,Z
 114 0066 9181      		ldd r25,Z+1
 115 0068 DC01      		movw r26,r24
 116 006a ED91      		ld r30,X+
 117 006c FC91      		ld r31,X
 118 006e 0084      		ldd __tmp_reg__,Z+8
 119 0070 F185      		ldd r31,Z+9
 120 0072 E02D      		mov r30,__tmp_reg__
 121 0074 40E0      		ldi r20,0
GAS LISTING C:\Users\Aluno\AppData\Local\Temp\ccDFeSWb.s 			page 3


 122 0076 68E6      		ldi r22,lo8(104)
 123 0078 70E0      		ldi r23,0
 124 007a 0995      		icall
 125 007c C82F      		mov r28,r24
 126 007e F601      		movw r30,r12
 127 0080 8081      		ld r24,Z
 128 0082 9181      		ldd r25,Z+1
 129 0084 C111      		cpse r28,__zero_reg__
 130 0086 00C0      		rjmp .L11
 131 0088 DC01      		movw r26,r24
 132 008a ED91      		ld r30,X+
 133 008c FC91      		ld r31,X
 134 008e 0684      		ldd __tmp_reg__,Z+14
 135 0090 F785      		ldd r31,Z+15
 136 0092 E02D      		mov r30,__tmp_reg__
 137 0094 0995      		icall
 138 0096 F601      		movw r30,r12
 139 0098 9483      		std Z+4,r25
 140 009a 8383      		std Z+3,r24
 141 009c 00C0      		rjmp .L4
 142               	.L11:
 143 009e 68E0      		ldi r22,lo8(8)
 144 00a0 6D0F      		add r22,r29
 145 00a2 DC01      		movw r26,r24
 146 00a4 ED91      		ld r30,X+
 147 00a6 FC91      		ld r31,X
 148 00a8 0190      		ld __tmp_reg__,Z+
 149 00aa F081      		ld r31,Z
 150 00ac E02D      		mov r30,__tmp_reg__
 151 00ae 9801      		movw r18,r16
 152 00b0 A701      		movw r20,r14
 153 00b2 0995      		icall
 154 00b4 C82F      		mov r28,r24
 155 00b6 8823      		tst r24
 156 00b8 01F4      		brne .+2
 157 00ba 00C0      		rjmp .L4
 158 00bc F601      		movw r30,r12
 159 00be 1482      		std Z+4,__zero_reg__
 160 00c0 1382      		std Z+3,__zero_reg__
 161 00c2 00C0      		rjmp .L4
 163               		.section	.text._ZN6Ds130710setRamDataEhPhh,"ax",@progbits
 164               	.global	_ZN6Ds130710setRamDataEhPhh
 166               	_ZN6Ds130710setRamDataEhPhh:
 167 0000 CF92      		push r12
 168 0002 DF92      		push r13
 169 0004 EF92      		push r14
 170 0006 FF92      		push r15
 171 0008 0F93      		push r16
 172 000a 1F93      		push r17
 173 000c CF93      		push r28
 174 000e DF93      		push r29
 175               	/* prologue: function */
 176               	/* frame size = 0 */
 177               	/* stack size = 8 */
 178               	.L__stack_usage = 8
 179 0010 FC01      		movw r30,r24
 180 0012 81E1      		ldi r24,lo8(17)
GAS LISTING C:\Users\Aluno\AppData\Local\Temp\ccDFeSWb.s 			page 4


 181 0014 90E0      		ldi r25,0
 182 0016 4115      		cp r20,__zero_reg__
 183 0018 5105      		cpc r21,__zero_reg__
 184 001a 01F0      		breq .L27
 185 001c 2111      		cpse r18,__zero_reg__
 186 001e 00C0      		rjmp .L19
 187 0020 80E1      		ldi r24,lo8(16)
 188 0022 90E0      		ldi r25,0
 189               	.L27:
 190 0024 9483      		std Z+4,r25
 191 0026 8383      		std Z+3,r24
 192 0028 C0E0      		ldi r28,0
 193               	.L16:
 194 002a 8C2F      		mov r24,r28
 195               	/* epilogue start */
 196 002c DF91      		pop r29
 197 002e CF91      		pop r28
 198 0030 1F91      		pop r17
 199 0032 0F91      		pop r16
 200 0034 FF90      		pop r15
 201 0036 EF90      		pop r14
 202 0038 DF90      		pop r13
 203 003a CF90      		pop r12
 204 003c 0895      		ret
 205               	.L19:
 206 003e 2933      		cpi r18,lo8(57)
 207 0040 00F0      		brlo .L20
 208               	.L22:
 209 0042 85E2      		ldi r24,lo8(37)
 210 0044 90E0      		ldi r25,0
 211 0046 00C0      		rjmp .L27
 212               	.L20:
 213 0048 82E1      		ldi r24,lo8(18)
 214 004a 90E0      		ldi r25,0
 215 004c 6833      		cpi r22,lo8(56)
 216 004e 00F4      		brsh .L27
 217 0050 022F      		mov r16,r18
 218 0052 10E0      		ldi r17,0
 219 0054 C801      		movw r24,r16
 220 0056 860F      		add r24,r22
 221 0058 911D      		adc r25,__zero_reg__
 222 005a C997      		sbiw r24,57
 223 005c 04F4      		brge .L22
 224 005e 7A01      		movw r14,r20
 225 0060 D62F      		mov r29,r22
 226 0062 6F01      		movw r12,r30
 227 0064 8081      		ld r24,Z
 228 0066 9181      		ldd r25,Z+1
 229 0068 DC01      		movw r26,r24
 230 006a ED91      		ld r30,X+
 231 006c FC91      		ld r31,X
 232 006e 0084      		ldd __tmp_reg__,Z+8
 233 0070 F185      		ldd r31,Z+9
 234 0072 E02D      		mov r30,__tmp_reg__
 235 0074 40E0      		ldi r20,0
 236 0076 68E6      		ldi r22,lo8(104)
 237 0078 70E0      		ldi r23,0
GAS LISTING C:\Users\Aluno\AppData\Local\Temp\ccDFeSWb.s 			page 5


 238 007a 0995      		icall
 239 007c C82F      		mov r28,r24
 240 007e F601      		movw r30,r12
 241 0080 8081      		ld r24,Z
 242 0082 9181      		ldd r25,Z+1
 243 0084 C111      		cpse r28,__zero_reg__
 244 0086 00C0      		rjmp .L23
 245 0088 DC01      		movw r26,r24
 246 008a ED91      		ld r30,X+
 247 008c FC91      		ld r31,X
 248 008e 0684      		ldd __tmp_reg__,Z+14
 249 0090 F785      		ldd r31,Z+15
 250 0092 E02D      		mov r30,__tmp_reg__
 251 0094 0995      		icall
 252 0096 F601      		movw r30,r12
 253 0098 9483      		std Z+4,r25
 254 009a 8383      		std Z+3,r24
 255 009c 00C0      		rjmp .L16
 256               	.L23:
 257 009e 68E0      		ldi r22,lo8(8)
 258 00a0 6D0F      		add r22,r29
 259 00a2 DC01      		movw r26,r24
 260 00a4 ED91      		ld r30,X+
 261 00a6 FC91      		ld r31,X
 262 00a8 0680      		ldd __tmp_reg__,Z+6
 263 00aa F781      		ldd r31,Z+7
 264 00ac E02D      		mov r30,__tmp_reg__
 265 00ae 9801      		movw r18,r16
 266 00b0 A701      		movw r20,r14
 267 00b2 0995      		icall
 268 00b4 C82F      		mov r28,r24
 269 00b6 8823      		tst r24
 270 00b8 01F4      		brne .+2
 271 00ba 00C0      		rjmp .L16
 272 00bc F601      		movw r30,r12
 273 00be 1482      		std Z+4,__zero_reg__
 274 00c0 1382      		std Z+3,__zero_reg__
 275 00c2 00C0      		rjmp .L16
 277               		.section	.text._ZN6Ds130710_clearDataEv,"ax",@progbits
 278               	.global	_ZN6Ds130710_clearDataEv
 280               	_ZN6Ds130710_clearDataEv:
 281 0000 CF92      		push r12
 282 0002 DF92      		push r13
 283 0004 EF92      		push r14
 284 0006 0F93      		push r16
 285 0008 CF93      		push r28
 286 000a DF93      		push r29
 287               	/* prologue: function */
 288               	/* frame size = 0 */
 289               	/* stack size = 6 */
 290               	.L__stack_usage = 6
 291 000c EC01      		movw r28,r24
 292 000e 1982      		std Y+1,__zero_reg__
 293 0010 1882      		st Y,__zero_reg__
 294 0012 8A81      		ldd r24,Y+2
 295 0014 8E7F      		andi r24,lo8(-2)
 296 0016 8D7F      		andi r24,lo8(~(1<<1))
GAS LISTING C:\Users\Aluno\AppData\Local\Temp\ccDFeSWb.s 			page 6


 297 0018 8A83      		std Y+2,r24
 298 001a 1E82      		std Y+6,__zero_reg__
 299 001c 1D82      		std Y+5,__zero_reg__
 300 001e 6E01      		movw r12,r28
 301 0020 87E0      		ldi r24,7
 302 0022 C80E      		add r12,r24
 303 0024 D11C      		adc r13,__zero_reg__
 304 0026 21E0      		ldi r18,lo8(1)
 305 0028 41E0      		ldi r20,lo8(1)
 306 002a 60ED      		ldi r22,lo8(-48)
 307 002c 77E0      		ldi r23,lo8(7)
 308 002e C601      		movw r24,r12
 309 0030 0E94 0000 		call _ZN8DateTime7setDateEjNS_5MonthEh
 310 0034 E12C      		mov r14,__zero_reg__
 311 0036 00E0      		ldi r16,0
 312 0038 20E0      		ldi r18,0
 313 003a 40E0      		ldi r20,0
 314 003c 60E0      		ldi r22,0
 315 003e C601      		movw r24,r12
 316 0040 0E94 0000 		call _ZN8DateTime7setTimeEhhhNS_10TimeFormatENS_8AmPmFlagE
 317 0044 1C82      		std Y+4,__zero_reg__
 318 0046 1B82      		std Y+3,__zero_reg__
 319               	/* epilogue start */
 320 0048 DF91      		pop r29
 321 004a CF91      		pop r28
 322 004c 0F91      		pop r16
 323 004e EF90      		pop r14
 324 0050 DF90      		pop r13
 325 0052 CF90      		pop r12
 326 0054 0895      		ret
 328               		.section	.text._ZN6Ds1307C2Ev,"ax",@progbits
 329               	.global	_ZN6Ds1307C2Ev
 331               	_ZN6Ds1307C2Ev:
 332 0000 CF93      		push r28
 333 0002 DF93      		push r29
 334               	/* prologue: function */
 335               	/* frame size = 0 */
 336               	/* stack size = 2 */
 337               	.L__stack_usage = 2
 338 0004 EC01      		movw r28,r24
 339 0006 0796      		adiw r24,7
 340 0008 0E94 0000 		call _ZN8DateTimeC1Ev
 341 000c CE01      		movw r24,r28
 342 000e 0E94 0000 		call _ZN6Ds130710_clearDataEv
 343 0012 1C82      		std Y+4,__zero_reg__
 344 0014 1B82      		std Y+3,__zero_reg__
 345               	/* epilogue start */
 346 0016 DF91      		pop r29
 347 0018 CF91      		pop r28
 348 001a 0895      		ret
 350               	.global	_ZN6Ds1307C1Ev
 351               		.set	_ZN6Ds1307C1Ev,_ZN6Ds1307C2Ev
 352               		.section	.text._ZN6Ds13074initEP3Bus,"ax",@progbits
 353               	.global	_ZN6Ds13074initEP3Bus
 355               	_ZN6Ds13074initEP3Bus:
 356 0000 0F93      		push r16
 357 0002 1F93      		push r17
GAS LISTING C:\Users\Aluno\AppData\Local\Temp\ccDFeSWb.s 			page 7


 358 0004 CF93      		push r28
 359 0006 DF93      		push r29
 360               	/* prologue: function */
 361               	/* frame size = 0 */
 362               	/* stack size = 4 */
 363               	.L__stack_usage = 4
 364 0008 EC01      		movw r28,r24
 365 000a 8B01      		movw r16,r22
 366 000c 0E94 0000 		call _ZN6Ds130710_clearDataEv
 367 0010 81E6      		ldi r24,lo8(97)
 368 0012 90E0      		ldi r25,0
 369 0014 0115      		cp r16,__zero_reg__
 370 0016 1105      		cpc r17,__zero_reg__
 371 0018 01F0      		breq .L34
 372 001a D801      		movw r26,r16
 373 001c ED91      		ld r30,X+
 374 001e FC91      		ld r31,X
 375 0020 0484      		ldd __tmp_reg__,Z+12
 376 0022 F585      		ldd r31,Z+13
 377 0024 E02D      		mov r30,__tmp_reg__
 378 0026 C801      		movw r24,r16
 379 0028 0995      		icall
 380 002a 0597      		sbiw r24,5
 381 002c 01F0      		breq .L33
 382 002e 80E6      		ldi r24,lo8(96)
 383 0030 90E0      		ldi r25,0
 384               	.L34:
 385 0032 9C83      		std Y+4,r25
 386 0034 8B83      		std Y+3,r24
 387 0036 80E0      		ldi r24,0
 388               	.L30:
 389               	/* epilogue start */
 390 0038 DF91      		pop r29
 391 003a CF91      		pop r28
 392 003c 1F91      		pop r17
 393 003e 0F91      		pop r16
 394 0040 0895      		ret
 395               	.L33:
 396 0042 1983      		std Y+1,r17
 397 0044 0883      		st Y,r16
 398 0046 8A81      		ldd r24,Y+2
 399 0048 8260      		ori r24,lo8(1<<1)
 400 004a 8A83      		std Y+2,r24
 401 004c 1C82      		std Y+4,__zero_reg__
 402 004e 1B82      		std Y+3,__zero_reg__
 403 0050 81E0      		ldi r24,lo8(1)
 404 0052 00C0      		rjmp .L30
 406               		.section	.text._ZN6Ds130714_isInitializedEv,"ax",@progbits
 407               	.global	_ZN6Ds130714_isInitializedEv
 409               	_ZN6Ds130714_isInitializedEv:
 410               	/* prologue: function */
 411               	/* frame size = 0 */
 412               	/* stack size = 0 */
 413               	.L__stack_usage = 0
 414 0000 FC01      		movw r30,r24
 415 0002 9281      		ldd r25,Z+2
 416 0004 91FB      		bst r25,1
GAS LISTING C:\Users\Aluno\AppData\Local\Temp\ccDFeSWb.s 			page 8


 417 0006 8827      		clr r24
 418 0008 80F9      		bld r24,0
 419 000a 91FD      		sbrc r25,1
 420 000c 00C0      		rjmp .L36
 421 000e 24E0      		ldi r18,lo8(4)
 422 0010 30E0      		ldi r19,0
 423 0012 3483      		std Z+4,r19
 424 0014 2383      		std Z+3,r18
 425 0016 0895      		ret
 426               	.L36:
 427 0018 1482      		std Z+4,__zero_reg__
 428 001a 1382      		std Z+3,__zero_reg__
 429               	/* epilogue start */
 430 001c 0895      		ret
 432               		.section	.text._ZN6Ds130722setSquareWaveGeneratorENS_10SquareWaveE,"ax",@progbits
 433               	.global	_ZN6Ds130722setSquareWaveGeneratorENS_10SquareWaveE
 435               	_ZN6Ds130722setSquareWaveGeneratorENS_10SquareWaveE:
 436 0000 CF92      		push r12
 437 0002 DF92      		push r13
 438 0004 EF92      		push r14
 439 0006 FF92      		push r15
 440 0008 1F93      		push r17
 441 000a CF93      		push r28
 442 000c DF93      		push r29
 443 000e 1F92      		push __zero_reg__
 444 0010 CDB7      		in r28,__SP_L__
 445 0012 DEB7      		in r29,__SP_H__
 446               	/* prologue: function */
 447               	/* frame size = 1 */
 448               	/* stack size = 8 */
 449               	.L__stack_usage = 8
 450 0014 7C01      		movw r14,r24
 451 0016 6B01      		movw r12,r22
 452 0018 0E94 0000 		call _ZN6Ds130714_isInitializedEv
 453 001c 182F      		mov r17,r24
 454 001e 8823      		tst r24
 455 0020 01F0      		breq .L38
 456 0022 32E0      		ldi r19,2
 457 0024 C316      		cp r12,r19
 458 0026 D104      		cpc r13,__zero_reg__
 459 0028 01F4      		brne .+2
 460 002a 00C0      		rjmp .L50
 461 002c 04F4      		brge .L42
 462 002e C114      		cp r12,__zero_reg__
 463 0030 D104      		cpc r13,__zero_reg__
 464 0032 01F4      		brne .+2
 465 0034 00C0      		rjmp .L43
 466 0036 812F      		mov r24,r17
 467 0038 A1E0      		ldi r26,1
 468 003a CA16      		cp r12,r26
 469 003c D104      		cpc r13,__zero_reg__
 470 003e 01F4      		brne .+2
 471 0040 00C0      		rjmp .L54
 472               	.L40:
 473 0042 8FEF      		ldi r24,lo8(-1)
 474 0044 9FEF      		ldi r25,lo8(-1)
 475 0046 D701      		movw r26,r14
GAS LISTING C:\Users\Aluno\AppData\Local\Temp\ccDFeSWb.s 			page 9


 476 0048 1496      		adiw r26,3+1
 477 004a 9C93      		st X,r25
 478 004c 8E93      		st -X,r24
 479 004e 1397      		sbiw r26,3
 480 0050 10E0      		ldi r17,0
 481               	.L38:
 482 0052 812F      		mov r24,r17
 483               	/* epilogue start */
 484 0054 0F90      		pop __tmp_reg__
 485 0056 DF91      		pop r29
 486 0058 CF91      		pop r28
 487 005a 1F91      		pop r17
 488 005c FF90      		pop r15
 489 005e EF90      		pop r14
 490 0060 DF90      		pop r13
 491 0062 CF90      		pop r12
 492 0064 0895      		ret
 493               	.L42:
 494 0066 B4E0      		ldi r27,4
 495 0068 CB16      		cp r12,r27
 496 006a D104      		cpc r13,__zero_reg__
 497 006c 01F0      		breq .L45
 498 006e 04F0      		brlt .L46
 499 0070 80E0      		ldi r24,0
 500 0072 23E0      		ldi r18,lo8(3)
 501 0074 F5E0      		ldi r31,5
 502 0076 CF16      		cp r12,r31
 503 0078 D104      		cpc r13,__zero_reg__
 504 007a 01F4      		brne .L40
 505               	.L41:
 506 007c B0E8      		ldi r27,lo8(-128)
 507 007e 8B9F      		mul r24,r27
 508 0080 C001      		movw r24,r0
 509 0082 1124      		clr __zero_reg__
 510 0084 E0E1      		ldi r30,lo8(16)
 511 0086 1E9F      		mul r17,r30
 512 0088 A001      		movw r20,r0
 513 008a 1124      		clr __zero_reg__
 514 008c 842B      		or r24,r20
 515 008e 822B      		or r24,r18
 516 0090 8983      		std Y+1,r24
 517 0092 D701      		movw r26,r14
 518 0094 8D91      		ld r24,X+
 519 0096 9C91      		ld r25,X
 520 0098 DC01      		movw r26,r24
 521 009a ED91      		ld r30,X+
 522 009c FC91      		ld r31,X
 523 009e 0084      		ldd __tmp_reg__,Z+8
 524 00a0 F185      		ldd r31,Z+9
 525 00a2 E02D      		mov r30,__tmp_reg__
 526 00a4 40E0      		ldi r20,0
 527 00a6 68E6      		ldi r22,lo8(104)
 528 00a8 70E0      		ldi r23,0
 529 00aa 0995      		icall
 530 00ac 182F      		mov r17,r24
 531 00ae F701      		movw r30,r14
 532 00b0 8081      		ld r24,Z
GAS LISTING C:\Users\Aluno\AppData\Local\Temp\ccDFeSWb.s 			page 10


 533 00b2 9181      		ldd r25,Z+1
 534 00b4 DC01      		movw r26,r24
 535 00b6 ED91      		ld r30,X+
 536 00b8 FC91      		ld r31,X
 537 00ba 1111      		cpse r17,__zero_reg__
 538 00bc 00C0      		rjmp .L48
 539               	.L55:
 540 00be 0684      		ldd __tmp_reg__,Z+14
 541 00c0 F785      		ldd r31,Z+15
 542 00c2 E02D      		mov r30,__tmp_reg__
 543 00c4 0995      		icall
 544 00c6 F701      		movw r30,r14
 545 00c8 9483      		std Z+4,r25
 546 00ca 8383      		std Z+3,r24
 547 00cc 00C0      		rjmp .L38
 548               	.L46:
 549 00ce 80E0      		ldi r24,0
 550 00d0 21E0      		ldi r18,lo8(1)
 551 00d2 00C0      		rjmp .L41
 552               	.L45:
 553 00d4 80E0      		ldi r24,0
 554 00d6 22E0      		ldi r18,lo8(2)
 555 00d8 00C0      		rjmp .L41
 556               	.L43:
 557 00da 80E0      		ldi r24,0
 558               	.L54:
 559 00dc 20E0      		ldi r18,0
 560 00de 10E0      		ldi r17,0
 561 00e0 00C0      		rjmp .L41
 562               	.L50:
 563 00e2 80E0      		ldi r24,0
 564 00e4 20E0      		ldi r18,0
 565 00e6 00C0      		rjmp .L41
 566               	.L48:
 567 00e8 0680      		ldd __tmp_reg__,Z+6
 568 00ea F781      		ldd r31,Z+7
 569 00ec E02D      		mov r30,__tmp_reg__
 570 00ee 21E0      		ldi r18,lo8(1)
 571 00f0 30E0      		ldi r19,0
 572 00f2 AE01      		movw r20,r28
 573 00f4 4F5F      		subi r20,-1
 574 00f6 5F4F      		sbci r21,-1
 575 00f8 67E0      		ldi r22,lo8(7)
 576 00fa 0995      		icall
 577 00fc 182F      		mov r17,r24
 578 00fe 8111      		cpse r24,__zero_reg__
 579 0100 00C0      		rjmp .L49
 580 0102 F701      		movw r30,r14
 581 0104 8081      		ld r24,Z
 582 0106 9181      		ldd r25,Z+1
 583 0108 DC01      		movw r26,r24
 584 010a ED91      		ld r30,X+
 585 010c FC91      		ld r31,X
 586 010e 00C0      		rjmp .L55
 587               	.L49:
 588 0110 D701      		movw r26,r14
 589 0112 1696      		adiw r26,5+1
GAS LISTING C:\Users\Aluno\AppData\Local\Temp\ccDFeSWb.s 			page 11


 590 0114 DC92      		st X,r13
 591 0116 CE92      		st -X,r12
 592 0118 1597      		sbiw r26,5
 593 011a 1496      		adiw r26,3+1
 594 011c 1C92      		st X,__zero_reg__
 595 011e 1E92      		st -X,__zero_reg__
 596 0120 1397      		sbiw r26,3
 597 0122 00C0      		rjmp .L38
 599               		.section	.text._ZN6Ds13078_getDataEv,"ax",@progbits
 600               	.global	_ZN6Ds13078_getDataEv
 602               	_ZN6Ds13078_getDataEv:
 603 0000 8F92      		push r8
 604 0002 9F92      		push r9
 605 0004 AF92      		push r10
 606 0006 BF92      		push r11
 607 0008 CF92      		push r12
 608 000a DF92      		push r13
 609 000c EF92      		push r14
 610 000e FF92      		push r15
 611 0010 0F93      		push r16
 612 0012 1F93      		push r17
 613 0014 CF93      		push r28
 614 0016 DF93      		push r29
 615 0018 00D0      		rcall .
 616 001a 00D0      		rcall .
 617 001c 00D0      		rcall .
 618 001e 1F92      		push __zero_reg__
 619 0020 CDB7      		in r28,__SP_L__
 620 0022 DEB7      		in r29,__SP_H__
 621               	/* prologue: function */
 622               	/* frame size = 7 */
 623               	/* stack size = 19 */
 624               	.L__stack_usage = 19
 625 0024 6C01      		movw r12,r24
 626 0026 DC01      		movw r26,r24
 627 0028 8D91      		ld r24,X+
 628 002a 9C91      		ld r25,X
 629 002c DC01      		movw r26,r24
 630 002e ED91      		ld r30,X+
 631 0030 FC91      		ld r31,X
 632 0032 0084      		ldd __tmp_reg__,Z+8
 633 0034 F185      		ldd r31,Z+9
 634 0036 E02D      		mov r30,__tmp_reg__
 635 0038 40E0      		ldi r20,0
 636 003a 68E6      		ldi r22,lo8(104)
 637 003c 70E0      		ldi r23,0
 638 003e 0995      		icall
 639 0040 182F      		mov r17,r24
 640 0042 F601      		movw r30,r12
 641 0044 8081      		ld r24,Z
 642 0046 9181      		ldd r25,Z+1
 643 0048 DC01      		movw r26,r24
 644 004a ED91      		ld r30,X+
 645 004c FC91      		ld r31,X
 646 004e 1111      		cpse r17,__zero_reg__
 647 0050 00C0      		rjmp .L57
 648               	.L66:
GAS LISTING C:\Users\Aluno\AppData\Local\Temp\ccDFeSWb.s 			page 12


 649 0052 0684      		ldd __tmp_reg__,Z+14
 650 0054 F785      		ldd r31,Z+15
 651 0056 E02D      		mov r30,__tmp_reg__
 652 0058 0995      		icall
 653               	.L65:
 654 005a F601      		movw r30,r12
 655 005c 9483      		std Z+4,r25
 656 005e 8383      		std Z+3,r24
 657               	.L56:
 658 0060 812F      		mov r24,r17
 659               	/* epilogue start */
 660 0062 2796      		adiw r28,7
 661 0064 0FB6      		in __tmp_reg__,__SREG__
 662 0066 F894      		cli
 663 0068 DEBF      		out __SP_H__,r29
 664 006a 0FBE      		out __SREG__,__tmp_reg__
 665 006c CDBF      		out __SP_L__,r28
 666 006e DF91      		pop r29
 667 0070 CF91      		pop r28
 668 0072 1F91      		pop r17
 669 0074 0F91      		pop r16
 670 0076 FF90      		pop r15
 671 0078 EF90      		pop r14
 672 007a DF90      		pop r13
 673 007c CF90      		pop r12
 674 007e BF90      		pop r11
 675 0080 AF90      		pop r10
 676 0082 9F90      		pop r9
 677 0084 8F90      		pop r8
 678 0086 0895      		ret
 679               	.L57:
 680 0088 0190      		ld __tmp_reg__,Z+
 681 008a F081      		ld r31,Z
 682 008c E02D      		mov r30,__tmp_reg__
 683 008e 27E0      		ldi r18,lo8(7)
 684 0090 30E0      		ldi r19,0
 685 0092 AE01      		movw r20,r28
 686 0094 4F5F      		subi r20,-1
 687 0096 5F4F      		sbci r21,-1
 688 0098 60E0      		ldi r22,0
 689 009a 0995      		icall
 690 009c 182F      		mov r17,r24
 691 009e 8111      		cpse r24,__zero_reg__
 692 00a0 00C0      		rjmp .L59
 693 00a2 F601      		movw r30,r12
 694 00a4 8081      		ld r24,Z
 695 00a6 9181      		ldd r25,Z+1
 696 00a8 DC01      		movw r26,r24
 697 00aa ED91      		ld r30,X+
 698 00ac FC91      		ld r31,X
 699 00ae 00C0      		rjmp .L66
 700               	.L59:
 701 00b0 2981      		ldd r18,Y+1
 702 00b2 D601      		movw r26,r12
 703 00b4 1296      		adiw r26,2
 704 00b6 8C91      		ld r24,X
 705 00b8 1297      		sbiw r26,2
GAS LISTING C:\Users\Aluno\AppData\Local\Temp\ccDFeSWb.s 			page 13


 706 00ba 27FB      		bst r18,7
 707 00bc 80F9      		bld r24,0
 708 00be 1296      		adiw r26,2
 709 00c0 8C93      		st X,r24
 710 00c2 822F      		mov r24,r18
 711 00c4 8F77      		andi r24,lo8(127)
 712 00c6 8983      		std Y+1,r24
 713 00c8 8295      		swap r24
 714 00ca 8F70      		andi r24,lo8(15)
 715 00cc 5AE0      		ldi r21,lo8(10)
 716 00ce 2F70      		andi r18,lo8(15)
 717 00d0 859F      		mul r24,r21
 718 00d2 200D      		add r18,r0
 719 00d4 1124      		clr __zero_reg__
 720 00d6 4A81      		ldd r20,Y+2
 721 00d8 842F      		mov r24,r20
 722 00da 8295      		swap r24
 723 00dc 8F70      		andi r24,lo8(15)
 724 00de 4F70      		andi r20,lo8(15)
 725 00e0 859F      		mul r24,r21
 726 00e2 400D      		add r20,r0
 727 00e4 1124      		clr __zero_reg__
 728 00e6 3B81      		ldd r19,Y+3
 729 00e8 832F      		mov r24,r19
 730 00ea 90E0      		ldi r25,0
 731 00ec 64E0      		ldi r22,4
 732               		1:
 733 00ee 9595      		asr r25
 734 00f0 8795      		ror r24
 735 00f2 6A95      		dec r22
 736 00f4 01F4      		brne 1b
 737 00f6 632F      		mov r22,r19
 738 00f8 6F70      		andi r22,lo8(15)
 739 00fa 36FF      		sbrs r19,6
 740 00fc 00C0      		rjmp .L61
 741 00fe 8170      		andi r24,lo8(1)
 742 0100 859F      		mul r24,r21
 743 0102 600D      		add r22,r0
 744 0104 1124      		clr __zero_reg__
 745 0106 35FB      		bst r19,5
 746 0108 EE24      		clr r14
 747 010a E0F8      		bld r14,0
 748 010c 01E0      		ldi r16,lo8(1)
 749               	.L62:
 750 010e 8D80      		ldd r8,Y+5
 751 0110 9E80      		ldd r9,Y+6
 752 0112 FF80      		ldd r15,Y+7
 753 0114 5601      		movw r10,r12
 754 0116 B7E0      		ldi r27,7
 755 0118 AB0E      		add r10,r27
 756 011a B11C      		adc r11,__zero_reg__
 757 011c C501      		movw r24,r10
 758 011e 0E94 0000 		call _ZN8DateTime7setTimeEhhhNS_10TimeFormatENS_8AmPmFlagE
 759 0122 182F      		mov r17,r24
 760 0124 8111      		cpse r24,__zero_reg__
 761 0126 00C0      		rjmp .L63
 762 0128 C501      		movw r24,r10
GAS LISTING C:\Users\Aluno\AppData\Local\Temp\ccDFeSWb.s 			page 14


 763 012a 0E94 0000 		call _ZN8DateTime12getLastErrorEv
 764 012e 00C0      		rjmp .L65
 765               	.L61:
 766 0130 8370      		andi r24,lo8(3)
 767 0132 859F      		mul r24,r21
 768 0134 600D      		add r22,r0
 769 0136 1124      		clr __zero_reg__
 770 0138 E12C      		mov r14,__zero_reg__
 771 013a 00E0      		ldi r16,0
 772 013c 00C0      		rjmp .L62
 773               	.L63:
 774 013e 2F2D      		mov r18,r15
 775 0140 30E0      		ldi r19,0
 776 0142 84E0      		ldi r24,4
 777               		1:
 778 0144 3595      		asr r19
 779 0146 2795      		ror r18
 780 0148 8A95      		dec r24
 781 014a 01F4      		brne 1b
 782 014c 8AE0      		ldi r24,lo8(10)
 783 014e 829F      		mul r24,r18
 784 0150 A001      		movw r20,r0
 785 0152 839F      		mul r24,r19
 786 0154 500D      		add r21,r0
 787 0156 1124      		clr __zero_reg__
 788 0158 6F2D      		mov r22,r15
 789 015a 6F70      		andi r22,lo8(15)
 790 015c 640F      		add r22,r20
 791 015e 752F      		mov r23,r21
 792 0160 711D      		adc r23,__zero_reg__
 793 0162 982D      		mov r25,r8
 794 0164 9295      		swap r25
 795 0166 9F70      		andi r25,lo8(15)
 796 0168 282D      		mov r18,r8
 797 016a 2F70      		andi r18,lo8(15)
 798 016c 989F      		mul r25,r24
 799 016e 200D      		add r18,r0
 800 0170 1124      		clr __zero_reg__
 801 0172 992D      		mov r25,r9
 802 0174 9295      		swap r25
 803 0176 9F70      		andi r25,lo8(15)
 804 0178 492D      		mov r20,r9
 805 017a 4F70      		andi r20,lo8(15)
 806 017c 989F      		mul r25,r24
 807 017e 400D      		add r20,r0
 808 0180 1124      		clr __zero_reg__
 809 0182 6053      		subi r22,48
 810 0184 784F      		sbci r23,-8
 811 0186 C501      		movw r24,r10
 812 0188 0E94 0000 		call _ZN8DateTime7setDateEjNS_5MonthEh
 813 018c 182F      		mov r17,r24
 814 018e 8111      		cpse r24,__zero_reg__
 815 0190 00C0      		rjmp .L64
 816 0192 C501      		movw r24,r10
 817 0194 0E94 0000 		call _ZN8DateTime12getLastErrorEv
 818 0198 D601      		movw r26,r12
 819 019a 1496      		adiw r26,3+1
GAS LISTING C:\Users\Aluno\AppData\Local\Temp\ccDFeSWb.s 			page 15


 820 019c 9C93      		st X,r25
 821 019e 8E93      		st -X,r24
 822 01a0 1397      		sbiw r26,3
 823 01a2 00C0      		rjmp .L56
 824               	.L64:
 825 01a4 F601      		movw r30,r12
 826 01a6 1482      		std Z+4,__zero_reg__
 827 01a8 1382      		std Z+3,__zero_reg__
 828 01aa 00C0      		rjmp .L56
 830               		.section	.text._ZN6Ds13077getDateEPjPhS1_S1_,"ax",@progbits
 831               	.global	_ZN6Ds13077getDateEPjPhS1_S1_
 833               	_ZN6Ds13077getDateEPjPhS1_S1_:
 834 0000 3F92      		push r3
 835 0002 4F92      		push r4
 836 0004 5F92      		push r5
 837 0006 6F92      		push r6
 838 0008 7F92      		push r7
 839 000a 8F92      		push r8
 840 000c 9F92      		push r9
 841 000e AF92      		push r10
 842 0010 BF92      		push r11
 843 0012 CF92      		push r12
 844 0014 DF92      		push r13
 845 0016 EF92      		push r14
 846 0018 FF92      		push r15
 847 001a 0F93      		push r16
 848 001c 1F93      		push r17
 849 001e CF93      		push r28
 850 0020 DF93      		push r29
 851 0022 00D0      		rcall .
 852 0024 00D0      		rcall .
 853 0026 1F92      		push __zero_reg__
 854 0028 CDB7      		in r28,__SP_L__
 855 002a DEB7      		in r29,__SP_H__
 856               	/* prologue: function */
 857               	/* frame size = 5 */
 858               	/* stack size = 22 */
 859               	.L__stack_usage = 22
 860 002c 7C01      		movw r14,r24
 861 002e 4B01      		movw r8,r22
 862 0030 5A01      		movw r10,r20
 863 0032 2901      		movw r4,r18
 864 0034 3801      		movw r6,r16
 865 0036 0E94 0000 		call _ZN6Ds130714_isInitializedEv
 866 003a 8111      		cpse r24,__zero_reg__
 867 003c 00C0      		rjmp .L68
 868               	.L89:
 869 003e 10E0      		ldi r17,0
 870               	.L67:
 871 0040 812F      		mov r24,r17
 872               	/* epilogue start */
 873 0042 0F90      		pop __tmp_reg__
 874 0044 0F90      		pop __tmp_reg__
 875 0046 0F90      		pop __tmp_reg__
 876 0048 0F90      		pop __tmp_reg__
 877 004a 0F90      		pop __tmp_reg__
 878 004c DF91      		pop r29
GAS LISTING C:\Users\Aluno\AppData\Local\Temp\ccDFeSWb.s 			page 16


 879 004e CF91      		pop r28
 880 0050 1F91      		pop r17
 881 0052 0F91      		pop r16
 882 0054 FF90      		pop r15
 883 0056 EF90      		pop r14
 884 0058 DF90      		pop r13
 885 005a CF90      		pop r12
 886 005c BF90      		pop r11
 887 005e AF90      		pop r10
 888 0060 9F90      		pop r9
 889 0062 8F90      		pop r8
 890 0064 7F90      		pop r7
 891 0066 6F90      		pop r6
 892 0068 5F90      		pop r5
 893 006a 4F90      		pop r4
 894 006c 3F90      		pop r3
 895 006e 0895      		ret
 896               	.L68:
 897 0070 8114      		cp r8,__zero_reg__
 898 0072 9104      		cpc r9,__zero_reg__
 899 0074 01F0      		breq .L70
 900 0076 A114      		cp r10,__zero_reg__
 901 0078 B104      		cpc r11,__zero_reg__
 902 007a 01F0      		breq .L70
 903 007c 4114      		cp r4,__zero_reg__
 904 007e 5104      		cpc r5,__zero_reg__
 905 0080 01F4      		brne .L71
 906               	.L70:
 907 0082 81E1      		ldi r24,lo8(17)
 908 0084 90E0      		ldi r25,0
 909 0086 F701      		movw r30,r14
 910 0088 9483      		std Z+4,r25
 911 008a 8383      		std Z+3,r24
 912 008c 00C0      		rjmp .L89
 913               	.L71:
 914 008e C701      		movw r24,r14
 915 0090 0E94 0000 		call _ZN6Ds13078_getDataEv
 916 0094 382E      		mov r3,r24
 917 0096 8823      		tst r24
 918 0098 01F0      		breq .L89
 919 009a 6701      		movw r12,r14
 920 009c F7E0      		ldi r31,7
 921 009e CF0E      		add r12,r31
 922 00a0 D11C      		adc r13,__zero_reg__
 923 00a2 012B      		or r16,r17
 924 00a4 01F0      		breq .L73
 925 00a6 8E01      		movw r16,r28
 926 00a8 0D5F      		subi r16,-3
 927 00aa 1F4F      		sbci r17,-1
 928 00ac 9E01      		movw r18,r28
 929 00ae 2C5F      		subi r18,-4
 930 00b0 3F4F      		sbci r19,-1
 931 00b2 AE01      		movw r20,r28
 932 00b4 4B5F      		subi r20,-5
 933 00b6 5F4F      		sbci r21,-1
 934 00b8 BE01      		movw r22,r28
 935 00ba 6F5F      		subi r22,-1
GAS LISTING C:\Users\Aluno\AppData\Local\Temp\ccDFeSWb.s 			page 17


 936 00bc 7F4F      		sbci r23,-1
 937 00be C601      		movw r24,r12
 938 00c0 0E94 0000 		call _ZN8DateTime7getDateEPjPNS_5MonthEPhPNS_7WeekDayE
 939 00c4 182F      		mov r17,r24
 940 00c6 8111      		cpse r24,__zero_reg__
 941 00c8 00C0      		rjmp .L74
 942               	.L88:
 943 00ca C601      		movw r24,r12
 944 00cc 0E94 0000 		call _ZN8DateTime12getLastErrorEv
 945 00d0 F701      		movw r30,r14
 946 00d2 9483      		std Z+4,r25
 947 00d4 8383      		std Z+3,r24
 948 00d6 00C0      		rjmp .L67
 949               	.L73:
 950 00d8 10E0      		ldi r17,0
 951 00da 00E0      		ldi r16,0
 952 00dc 9E01      		movw r18,r28
 953 00de 2C5F      		subi r18,-4
 954 00e0 3F4F      		sbci r19,-1
 955 00e2 AE01      		movw r20,r28
 956 00e4 4B5F      		subi r20,-5
 957 00e6 5F4F      		sbci r21,-1
 958 00e8 BE01      		movw r22,r28
 959 00ea 6F5F      		subi r22,-1
 960 00ec 7F4F      		sbci r23,-1
 961 00ee C601      		movw r24,r12
 962 00f0 0E94 0000 		call _ZN8DateTime7getDateEPjPNS_5MonthEPhPNS_7WeekDayE
 963 00f4 182F      		mov r17,r24
 964 00f6 8823      		tst r24
 965 00f8 01F0      		breq .L88
 966               	.L76:
 967 00fa 8981      		ldd r24,Y+1
 968 00fc 9A81      		ldd r25,Y+2
 969 00fe F401      		movw r30,r8
 970 0100 9183      		std Z+1,r25
 971 0102 8083      		st Z,r24
 972 0104 8D81      		ldd r24,Y+5
 973 0106 F501      		movw r30,r10
 974 0108 8083      		st Z,r24
 975 010a 8C81      		ldd r24,Y+4
 976 010c F201      		movw r30,r4
 977 010e 8083      		st Z,r24
 978 0110 F701      		movw r30,r14
 979 0112 1482      		std Z+4,__zero_reg__
 980 0114 1382      		std Z+3,__zero_reg__
 981 0116 132D      		mov r17,r3
 982 0118 00C0      		rjmp .L67
 983               	.L74:
 984 011a 8B81      		ldd r24,Y+3
 985 011c F301      		movw r30,r6
 986 011e 8083      		st Z,r24
 987 0120 00C0      		rjmp .L76
 989               		.section	.text._ZN6Ds130711getDateTimeEP8DateTime,"ax",@progbits
 990               	.global	_ZN6Ds130711getDateTimeEP8DateTime
 992               	_ZN6Ds130711getDateTimeEP8DateTime:
 993 0000 0F93      		push r16
 994 0002 1F93      		push r17
GAS LISTING C:\Users\Aluno\AppData\Local\Temp\ccDFeSWb.s 			page 18


 995 0004 CF93      		push r28
 996 0006 DF93      		push r29
 997               	/* prologue: function */
 998               	/* frame size = 0 */
 999               	/* stack size = 4 */
 1000               	.L__stack_usage = 4
 1001 0008 EC01      		movw r28,r24
 1002 000a 8B01      		movw r16,r22
 1003 000c 0E94 0000 		call _ZN6Ds130714_isInitializedEv
 1004 0010 8111      		cpse r24,__zero_reg__
 1005 0012 00C0      		rjmp .L91
 1006               	.L98:
 1007 0014 80E0      		ldi r24,0
 1008               	.L90:
 1009               	/* epilogue start */
 1010 0016 DF91      		pop r29
 1011 0018 CF91      		pop r28
 1012 001a 1F91      		pop r17
 1013 001c 0F91      		pop r16
 1014 001e 0895      		ret
 1015               	.L91:
 1016 0020 0115      		cp r16,__zero_reg__
 1017 0022 1105      		cpc r17,__zero_reg__
 1018 0024 01F4      		brne .L93
 1019 0026 81E1      		ldi r24,lo8(17)
 1020 0028 90E0      		ldi r25,0
 1021 002a 9C83      		std Y+4,r25
 1022 002c 8B83      		std Y+3,r24
 1023 002e 00C0      		rjmp .L98
 1024               	.L93:
 1025 0030 CE01      		movw r24,r28
 1026 0032 0E94 0000 		call _ZN6Ds13078_getDataEv
 1027 0036 8823      		tst r24
 1028 0038 01F0      		breq .L98
 1029 003a 9FE0      		ldi r25,lo8(15)
 1030 003c FE01      		movw r30,r28
 1031 003e 3796      		adiw r30,7
 1032 0040 D801      		movw r26,r16
 1033               		0:
 1034 0042 0190      		ld r0,Z+
 1035 0044 0D92      		st X+,r0
 1036 0046 9A95      		dec r25
 1037 0048 01F4      		brne 0b
 1038 004a 1C82      		std Y+4,__zero_reg__
 1039 004c 1B82      		std Y+3,__zero_reg__
 1040 004e 00C0      		rjmp .L90
 1042               		.section	.text._ZN6Ds13077getTimeEPhS0_S0_N8DateTime10TimeFormatEPNS1_8AmPmFlagE,"ax",@progbits
 1043               	.global	_ZN6Ds13077getTimeEPhS0_S0_N8DateTime10TimeFormatEPNS1_8AmPmFlagE
 1045               	_ZN6Ds13077getTimeEPhS0_S0_N8DateTime10TimeFormatEPNS1_8AmPmFlagE:
 1046 0000 6F92      		push r6
 1047 0002 7F92      		push r7
 1048 0004 8F92      		push r8
 1049 0006 9F92      		push r9
 1050 0008 AF92      		push r10
 1051 000a BF92      		push r11
 1052 000c CF92      		push r12
 1053 000e DF92      		push r13
GAS LISTING C:\Users\Aluno\AppData\Local\Temp\ccDFeSWb.s 			page 19


 1054 0010 EF92      		push r14
 1055 0012 FF92      		push r15
 1056 0014 0F93      		push r16
 1057 0016 1F93      		push r17
 1058 0018 CF93      		push r28
 1059 001a DF93      		push r29
 1060               	/* prologue: function */
 1061               	/* frame size = 0 */
 1062               	/* stack size = 14 */
 1063               	.L__stack_usage = 14
 1064 001c EC01      		movw r28,r24
 1065 001e 5B01      		movw r10,r22
 1066 0020 3A01      		movw r6,r20
 1067 0022 4901      		movw r8,r18
 1068 0024 0E94 0000 		call _ZN6Ds130714_isInitializedEv
 1069 0028 8111      		cpse r24,__zero_reg__
 1070 002a 00C0      		rjmp .L100
 1071               	.L119:
 1072 002c 10E0      		ldi r17,0
 1073               	.L99:
 1074 002e 812F      		mov r24,r17
 1075               	/* epilogue start */
 1076 0030 DF91      		pop r29
 1077 0032 CF91      		pop r28
 1078 0034 1F91      		pop r17
 1079 0036 0F91      		pop r16
 1080 0038 FF90      		pop r15
 1081 003a EF90      		pop r14
 1082 003c DF90      		pop r13
 1083 003e CF90      		pop r12
 1084 0040 BF90      		pop r11
 1085 0042 AF90      		pop r10
 1086 0044 9F90      		pop r9
 1087 0046 8F90      		pop r8
 1088 0048 7F90      		pop r7
 1089 004a 6F90      		pop r6
 1090 004c 0895      		ret
 1091               	.L100:
 1092 004e A114      		cp r10,__zero_reg__
 1093 0050 B104      		cpc r11,__zero_reg__
 1094 0052 01F0      		breq .L102
 1095 0054 6114      		cp r6,__zero_reg__
 1096 0056 7104      		cpc r7,__zero_reg__
 1097 0058 01F0      		breq .L102
 1098 005a 8114      		cp r8,__zero_reg__
 1099 005c 9104      		cpc r9,__zero_reg__
 1100 005e 01F4      		brne .L103
 1101               	.L102:
 1102 0060 81E1      		ldi r24,lo8(17)
 1103 0062 90E0      		ldi r25,0
 1104 0064 9C83      		std Y+4,r25
 1105 0066 8B83      		std Y+3,r24
 1106 0068 00C0      		rjmp .L119
 1107               	.L103:
 1108 006a 0130      		cpi r16,lo8(1)
 1109 006c 01F4      		brne .L104
 1110 006e E114      		cp r14,__zero_reg__
GAS LISTING C:\Users\Aluno\AppData\Local\Temp\ccDFeSWb.s 			page 20


 1111 0070 F104      		cpc r15,__zero_reg__
 1112 0072 01F0      		breq .L102
 1113               	.L104:
 1114 0074 CE01      		movw r24,r28
 1115 0076 0E94 0000 		call _ZN6Ds13078_getDataEv
 1116 007a 8823      		tst r24
 1117 007c 01F0      		breq .L119
 1118 007e 6E01      		movw r12,r28
 1119 0080 87E0      		ldi r24,7
 1120 0082 C80E      		add r12,r24
 1121 0084 D11C      		adc r13,__zero_reg__
 1122 0086 9401      		movw r18,r8
 1123 0088 A301      		movw r20,r6
 1124 008a B501      		movw r22,r10
 1125 008c C601      		movw r24,r12
 1126 008e 0E94 0000 		call _ZN8DateTime7getTimeEPhS0_S0_NS_10TimeFormatEPNS_8AmPmFlagE
 1127 0092 182F      		mov r17,r24
 1128 0094 8111      		cpse r24,__zero_reg__
 1129 0096 00C0      		rjmp .L106
 1130 0098 C601      		movw r24,r12
 1131 009a 0E94 0000 		call _ZN8DateTime12getLastErrorEv
 1132 009e 9C83      		std Y+4,r25
 1133 00a0 8B83      		std Y+3,r24
 1134 00a2 00C0      		rjmp .L99
 1135               	.L106:
 1136 00a4 1C82      		std Y+4,__zero_reg__
 1137 00a6 1B82      		std Y+3,__zero_reg__
 1138 00a8 00C0      		rjmp .L99
 1140               		.section	.text._ZN6Ds13079_sendDataEv,"ax",@progbits
 1141               	.global	_ZN6Ds13079_sendDataEv
 1143               	_ZN6Ds13079_sendDataEv:
 1144 0000 AF92      		push r10
 1145 0002 BF92      		push r11
 1146 0004 CF92      		push r12
 1147 0006 DF92      		push r13
 1148 0008 EF92      		push r14
 1149 000a FF92      		push r15
 1150 000c 0F93      		push r16
 1151 000e 1F93      		push r17
 1152 0010 CF93      		push r28
 1153 0012 DF93      		push r29
 1154 0014 CDB7      		in r28,__SP_L__
 1155 0016 DEB7      		in r29,__SP_H__
 1156 0018 6197      		sbiw r28,17
 1157 001a 0FB6      		in __tmp_reg__,__SREG__
 1158 001c F894      		cli
 1159 001e DEBF      		out __SP_H__,r29
 1160 0020 0FBE      		out __SREG__,__tmp_reg__
 1161 0022 CDBF      		out __SP_L__,r28
 1162               	/* prologue: function */
 1163               	/* frame size = 17 */
 1164               	/* stack size = 27 */
 1165               	.L__stack_usage = 27
 1166 0024 6C01      		movw r12,r24
 1167 0026 5C01      		movw r10,r24
 1168 0028 27E0      		ldi r18,7
 1169 002a A20E      		add r10,r18
GAS LISTING C:\Users\Aluno\AppData\Local\Temp\ccDFeSWb.s 			page 21


 1170 002c B11C      		adc r11,__zero_reg__
 1171 002e BE01      		movw r22,r28
 1172 0030 655F      		subi r22,-11
 1173 0032 7F4F      		sbci r23,-1
 1174 0034 C501      		movw r24,r10
 1175 0036 0E94 0000 		call _ZN8DateTime13getTimeFormatEPNS_10TimeFormatE
 1176 003a 182F      		mov r17,r24
 1177 003c 8111      		cpse r24,__zero_reg__
 1178 003e 00C0      		rjmp .L121
 1179               	.L132:
 1180 0040 C501      		movw r24,r10
 1181 0042 0E94 0000 		call _ZN8DateTime12getLastErrorEv
 1182 0046 D601      		movw r26,r12
 1183 0048 1496      		adiw r26,3+1
 1184 004a 9C93      		st X,r25
 1185 004c 8E93      		st -X,r24
 1186 004e 1397      		sbiw r26,3
 1187               	.L120:
 1188 0050 812F      		mov r24,r17
 1189               	/* epilogue start */
 1190 0052 6196      		adiw r28,17
 1191 0054 0FB6      		in __tmp_reg__,__SREG__
 1192 0056 F894      		cli
 1193 0058 DEBF      		out __SP_H__,r29
 1194 005a 0FBE      		out __SREG__,__tmp_reg__
 1195 005c CDBF      		out __SP_L__,r28
 1196 005e DF91      		pop r29
 1197 0060 CF91      		pop r28
 1198 0062 1F91      		pop r17
 1199 0064 0F91      		pop r16
 1200 0066 FF90      		pop r15
 1201 0068 EF90      		pop r14
 1202 006a DF90      		pop r13
 1203 006c CF90      		pop r12
 1204 006e BF90      		pop r11
 1205 0070 AF90      		pop r10
 1206 0072 0895      		ret
 1207               	.L121:
 1208 0074 FE01      		movw r30,r28
 1209 0076 3A96      		adiw r30,10
 1210 0078 7F01      		movw r14,r30
 1211 007a 0B85      		ldd r16,Y+11
 1212 007c 9E01      		movw r18,r28
 1213 007e 2F5E      		subi r18,-17
 1214 0080 3F4F      		sbci r19,-1
 1215 0082 AE01      		movw r20,r28
 1216 0084 405F      		subi r20,-16
 1217 0086 5F4F      		sbci r21,-1
 1218 0088 BE01      		movw r22,r28
 1219 008a 615F      		subi r22,-15
 1220 008c 7F4F      		sbci r23,-1
 1221 008e C501      		movw r24,r10
 1222 0090 0E94 0000 		call _ZN8DateTime7getTimeEPhS0_S0_NS_10TimeFormatEPNS_8AmPmFlagE
 1223 0094 182F      		mov r17,r24
 1224 0096 8823      		tst r24
 1225 0098 01F0      		breq .L132
 1226 009a 8E01      		movw r16,r28
GAS LISTING C:\Users\Aluno\AppData\Local\Temp\ccDFeSWb.s 			page 22


 1227 009c 025F      		subi r16,-14
 1228 009e 1F4F      		sbci r17,-1
 1229 00a0 9E01      		movw r18,r28
 1230 00a2 235F      		subi r18,-13
 1231 00a4 3F4F      		sbci r19,-1
 1232 00a6 AE01      		movw r20,r28
 1233 00a8 445F      		subi r20,-12
 1234 00aa 5F4F      		sbci r21,-1
 1235 00ac BE01      		movw r22,r28
 1236 00ae 685F      		subi r22,-8
 1237 00b0 7F4F      		sbci r23,-1
 1238 00b2 C501      		movw r24,r10
 1239 00b4 0E94 0000 		call _ZN8DateTime7getDateEPjPNS_5MonthEPhPNS_7WeekDayE
 1240 00b8 182F      		mov r17,r24
 1241 00ba 8111      		cpse r24,__zero_reg__
 1242 00bc 00C0      		rjmp .L124
 1243 00be C501      		movw r24,r10
 1244 00c0 0E94 0000 		call _ZN8DateTime12getLastErrorEv
 1245               	.L133:
 1246 00c4 F601      		movw r30,r12
 1247 00c6 9483      		std Z+4,r25
 1248 00c8 8383      		std Z+3,r24
 1249 00ca 00C0      		rjmp .L120
 1250               	.L124:
 1251 00cc 8885      		ldd r24,Y+8
 1252 00ce 9985      		ldd r25,Y+9
 1253 00d0 803D      		cpi r24,-48
 1254 00d2 F7E0      		ldi r31,7
 1255 00d4 9F07      		cpc r25,r31
 1256 00d6 00F0      		brlo .L125
 1257 00d8 805D      		subi r24,-48
 1258 00da 9740      		sbci r25,7
 1259 00dc 9987      		std Y+9,r25
 1260 00de 8887      		std Y+8,r24
 1261               	.L125:
 1262 00e0 8989      		ldd r24,Y+17
 1263 00e2 2AE0      		ldi r18,lo8(10)
 1264 00e4 622F      		mov r22,r18
 1265 00e6 0E94 0000 		call __udivmodqi4
 1266 00ea 30E1      		ldi r19,lo8(16)
 1267 00ec 839F      		mul r24,r19
 1268 00ee A001      		movw r20,r0
 1269 00f0 1124      		clr __zero_reg__
 1270 00f2 892F      		mov r24,r25
 1271 00f4 842B      		or r24,r20
 1272 00f6 D601      		movw r26,r12
 1273 00f8 1296      		adiw r26,2
 1274 00fa 9C91      		ld r25,X
 1275 00fc 9795      		ror r25
 1276 00fe 9927      		clr r25
 1277 0100 9795      		ror r25
 1278 0102 982B      		or r25,r24
 1279 0104 9983      		std Y+1,r25
 1280 0106 8889      		ldd r24,Y+16
 1281 0108 0E94 0000 		call __udivmodqi4
 1282 010c B0E1      		ldi r27,lo8(16)
 1283 010e 8B9F      		mul r24,r27
GAS LISTING C:\Users\Aluno\AppData\Local\Temp\ccDFeSWb.s 			page 23


 1284 0110 A001      		movw r20,r0
 1285 0112 1124      		clr __zero_reg__
 1286 0114 942B      		or r25,r20
 1287 0116 9A83      		std Y+2,r25
 1288 0118 8F85      		ldd r24,Y+15
 1289 011a 0E94 0000 		call __udivmodqi4
 1290 011e E0E1      		ldi r30,lo8(16)
 1291 0120 8E9F      		mul r24,r30
 1292 0122 9001      		movw r18,r0
 1293 0124 1124      		clr __zero_reg__
 1294 0126 922B      		or r25,r18
 1295 0128 9B83      		std Y+3,r25
 1296 012a 8B85      		ldd r24,Y+11
 1297 012c 8130      		cpi r24,lo8(1)
 1298 012e 01F4      		brne .L126
 1299 0130 9064      		ori r25,lo8(64)
 1300 0132 8A85      		ldd r24,Y+10
 1301 0134 8130      		cpi r24,lo8(1)
 1302 0136 01F0      		breq .L130
 1303 0138 80E0      		ldi r24,0
 1304               	.L127:
 1305 013a 982B      		or r25,r24
 1306 013c 9B83      		std Y+3,r25
 1307               	.L126:
 1308 013e 8E85      		ldd r24,Y+14
 1309 0140 8C83      		std Y+4,r24
 1310 0142 8D85      		ldd r24,Y+13
 1311 0144 4AE0      		ldi r20,lo8(10)
 1312 0146 642F      		mov r22,r20
 1313 0148 0E94 0000 		call __udivmodqi4
 1314 014c F0E1      		ldi r31,lo8(16)
 1315 014e 8F9F      		mul r24,r31
 1316 0150 9001      		movw r18,r0
 1317 0152 1124      		clr __zero_reg__
 1318 0154 922B      		or r25,r18
 1319 0156 9D83      		std Y+5,r25
 1320 0158 8C85      		ldd r24,Y+12
 1321 015a 0E94 0000 		call __udivmodqi4
 1322 015e 40E1      		ldi r20,lo8(16)
 1323 0160 849F      		mul r24,r20
 1324 0162 9001      		movw r18,r0
 1325 0164 1124      		clr __zero_reg__
 1326 0166 922B      		or r25,r18
 1327 0168 9E83      		std Y+6,r25
 1328 016a 8885      		ldd r24,Y+8
 1329 016c 9985      		ldd r25,Y+9
 1330 016e 6AE0      		ldi r22,lo8(10)
 1331 0170 70E0      		ldi r23,0
 1332 0172 0E94 0000 		call __udivmodhi4
 1333 0176 6295      		swap r22
 1334 0178 607F      		andi r22,lo8(-16)
 1335 017a 862B      		or r24,r22
 1336 017c 8F83      		std Y+7,r24
 1337 017e D601      		movw r26,r12
 1338 0180 8D91      		ld r24,X+
 1339 0182 9C91      		ld r25,X
 1340 0184 DC01      		movw r26,r24
GAS LISTING C:\Users\Aluno\AppData\Local\Temp\ccDFeSWb.s 			page 24


 1341 0186 ED91      		ld r30,X+
 1342 0188 FC91      		ld r31,X
 1343 018a 0084      		ldd __tmp_reg__,Z+8
 1344 018c F185      		ldd r31,Z+9
 1345 018e E02D      		mov r30,__tmp_reg__
 1346 0190 40E0      		ldi r20,0
 1347 0192 68E6      		ldi r22,lo8(104)
 1348 0194 70E0      		ldi r23,0
 1349 0196 0995      		icall
 1350 0198 182F      		mov r17,r24
 1351 019a F601      		movw r30,r12
 1352 019c 8081      		ld r24,Z
 1353 019e 9181      		ldd r25,Z+1
 1354 01a0 DC01      		movw r26,r24
 1355 01a2 ED91      		ld r30,X+
 1356 01a4 FC91      		ld r31,X
 1357 01a6 1111      		cpse r17,__zero_reg__
 1358 01a8 00C0      		rjmp .L128
 1359               	.L131:
 1360 01aa 0684      		ldd __tmp_reg__,Z+14
 1361 01ac F785      		ldd r31,Z+15
 1362 01ae E02D      		mov r30,__tmp_reg__
 1363 01b0 0995      		icall
 1364 01b2 00C0      		rjmp .L133
 1365               	.L130:
 1366 01b4 80E2      		ldi r24,lo8(32)
 1367 01b6 00C0      		rjmp .L127
 1368               	.L128:
 1369 01b8 0680      		ldd __tmp_reg__,Z+6
 1370 01ba F781      		ldd r31,Z+7
 1371 01bc E02D      		mov r30,__tmp_reg__
 1372 01be 27E0      		ldi r18,lo8(7)
 1373 01c0 30E0      		ldi r19,0
 1374 01c2 AE01      		movw r20,r28
 1375 01c4 4F5F      		subi r20,-1
 1376 01c6 5F4F      		sbci r21,-1
 1377 01c8 60E0      		ldi r22,0
 1378 01ca 0995      		icall
 1379 01cc 182F      		mov r17,r24
 1380 01ce 8111      		cpse r24,__zero_reg__
 1381 01d0 00C0      		rjmp .L129
 1382 01d2 F601      		movw r30,r12
 1383 01d4 8081      		ld r24,Z
 1384 01d6 9181      		ldd r25,Z+1
 1385 01d8 DC01      		movw r26,r24
 1386 01da ED91      		ld r30,X+
 1387 01dc FC91      		ld r31,X
 1388 01de 00C0      		rjmp .L131
 1389               	.L129:
 1390 01e0 D601      		movw r26,r12
 1391 01e2 1496      		adiw r26,3+1
 1392 01e4 1C92      		st X,__zero_reg__
 1393 01e6 1E92      		st -X,__zero_reg__
 1394 01e8 1397      		sbiw r26,3
 1395 01ea 00C0      		rjmp .L120
 1397               		.section	.text._ZN6Ds13077setDateEjhh,"ax",@progbits
 1398               	.global	_ZN6Ds13077setDateEjhh
GAS LISTING C:\Users\Aluno\AppData\Local\Temp\ccDFeSWb.s 			page 25


 1400               	_ZN6Ds13077setDateEjhh:
 1401 0000 CF92      		push r12
 1402 0002 DF92      		push r13
 1403 0004 EF92      		push r14
 1404 0006 FF92      		push r15
 1405 0008 0F93      		push r16
 1406 000a 1F93      		push r17
 1407 000c CF93      		push r28
 1408 000e DF93      		push r29
 1409               	/* prologue: function */
 1410               	/* frame size = 0 */
 1411               	/* stack size = 8 */
 1412               	.L__stack_usage = 8
 1413 0010 8C01      		movw r16,r24
 1414 0012 EB01      		movw r28,r22
 1415 0014 D42E      		mov r13,r20
 1416 0016 C22E      		mov r12,r18
 1417 0018 0E94 0000 		call _ZN6Ds130714_isInitializedEv
 1418 001c 8111      		cpse r24,__zero_reg__
 1419 001e 00C0      		rjmp .L135
 1420               	.L138:
 1421 0020 C0E0      		ldi r28,0
 1422               	.L134:
 1423 0022 8C2F      		mov r24,r28
 1424               	/* epilogue start */
 1425 0024 DF91      		pop r29
 1426 0026 CF91      		pop r28
 1427 0028 1F91      		pop r17
 1428 002a 0F91      		pop r16
 1429 002c FF90      		pop r15
 1430 002e EF90      		pop r14
 1431 0030 DF90      		pop r13
 1432 0032 CF90      		pop r12
 1433 0034 0895      		ret
 1434               	.L135:
 1435 0036 7801      		movw r14,r16
 1436 0038 87E0      		ldi r24,7
 1437 003a E80E      		add r14,r24
 1438 003c F11C      		adc r15,__zero_reg__
 1439 003e 2C2D      		mov r18,r12
 1440 0040 4D2D      		mov r20,r13
 1441 0042 BE01      		movw r22,r28
 1442 0044 C701      		movw r24,r14
 1443 0046 0E94 0000 		call _ZN8DateTime7setDateEjNS_5MonthEh
 1444 004a C82F      		mov r28,r24
 1445 004c 8111      		cpse r24,__zero_reg__
 1446 004e 00C0      		rjmp .L137
 1447 0050 C701      		movw r24,r14
 1448 0052 0E94 0000 		call _ZN8DateTime12getLastErrorEv
 1449 0056 F801      		movw r30,r16
 1450 0058 9483      		std Z+4,r25
 1451 005a 8383      		std Z+3,r24
 1452 005c 00C0      		rjmp .L134
 1453               	.L137:
 1454 005e C801      		movw r24,r16
 1455 0060 0E94 0000 		call _ZN6Ds13079_sendDataEv
 1456 0064 C82F      		mov r28,r24
GAS LISTING C:\Users\Aluno\AppData\Local\Temp\ccDFeSWb.s 			page 26


 1457 0066 8823      		tst r24
 1458 0068 01F0      		breq .L138
 1459 006a F801      		movw r30,r16
 1460 006c 1482      		std Z+4,__zero_reg__
 1461 006e 1382      		std Z+3,__zero_reg__
 1462 0070 00C0      		rjmp .L134
 1464               		.section	.text._ZN6Ds130711setDateTimeE8DateTime,"ax",@progbits
 1465               	.global	_ZN6Ds130711setDateTimeE8DateTime
 1467               	_ZN6Ds130711setDateTimeE8DateTime:
 1468 0000 0F93      		push r16
 1469 0002 1F93      		push r17
 1470 0004 CF93      		push r28
 1471 0006 DF93      		push r29
 1472               	/* prologue: function */
 1473               	/* frame size = 0 */
 1474               	/* stack size = 4 */
 1475               	.L__stack_usage = 4
 1476 0008 EC01      		movw r28,r24
 1477 000a 8B01      		movw r16,r22
 1478 000c 0E94 0000 		call _ZN6Ds130714_isInitializedEv
 1479 0010 8111      		cpse r24,__zero_reg__
 1480 0012 00C0      		rjmp .L143
 1481               	.L147:
 1482 0014 80E0      		ldi r24,0
 1483               	.L142:
 1484               	/* epilogue start */
 1485 0016 DF91      		pop r29
 1486 0018 CF91      		pop r28
 1487 001a 1F91      		pop r17
 1488 001c 0F91      		pop r16
 1489 001e 0895      		ret
 1490               	.L143:
 1491 0020 C801      		movw r24,r16
 1492 0022 0E94 0000 		call _ZN8DateTime9isDateSetEv
 1493 0026 20E5      		ldi r18,lo8(80)
 1494 0028 30E0      		ldi r19,0
 1495 002a 8823      		tst r24
 1496 002c 01F0      		breq .L151
 1497 002e C801      		movw r24,r16
 1498 0030 0E94 0000 		call _ZN8DateTime9isTimeSetEv
 1499 0034 8111      		cpse r24,__zero_reg__
 1500 0036 00C0      		rjmp .L146
 1501 0038 27E5      		ldi r18,lo8(87)
 1502 003a 30E0      		ldi r19,0
 1503               	.L151:
 1504 003c 3C83      		std Y+4,r19
 1505 003e 2B83      		std Y+3,r18
 1506 0040 00C0      		rjmp .L142
 1507               	.L146:
 1508 0042 8FE0      		ldi r24,lo8(15)
 1509 0044 F801      		movw r30,r16
 1510 0046 DE01      		movw r26,r28
 1511 0048 1796      		adiw r26,7
 1512               		0:
 1513 004a 0190      		ld r0,Z+
 1514 004c 0D92      		st X+,r0
 1515 004e 8A95      		dec r24
GAS LISTING C:\Users\Aluno\AppData\Local\Temp\ccDFeSWb.s 			page 27


 1516 0050 01F4      		brne 0b
 1517 0052 CE01      		movw r24,r28
 1518 0054 0E94 0000 		call _ZN6Ds13079_sendDataEv
 1519 0058 8823      		tst r24
 1520 005a 01F0      		breq .L147
 1521 005c 1C82      		std Y+4,__zero_reg__
 1522 005e 1B82      		std Y+3,__zero_reg__
 1523 0060 00C0      		rjmp .L142
 1525               		.section	.text._ZN6Ds13077setTimeEhhhN8DateTime10TimeFormatENS0_8AmPmFlagE,"ax",@progbits
 1526               	.global	_ZN6Ds13077setTimeEhhhN8DateTime10TimeFormatENS0_8AmPmFlagE
 1528               	_ZN6Ds13077setTimeEhhhN8DateTime10TimeFormatENS0_8AmPmFlagE:
 1529 0000 AF92      		push r10
 1530 0002 BF92      		push r11
 1531 0004 CF92      		push r12
 1532 0006 DF92      		push r13
 1533 0008 EF92      		push r14
 1534 000a 0F93      		push r16
 1535 000c 1F93      		push r17
 1536 000e CF93      		push r28
 1537 0010 DF93      		push r29
 1538               	/* prologue: function */
 1539               	/* frame size = 0 */
 1540               	/* stack size = 9 */
 1541               	.L__stack_usage = 9
 1542 0012 6C01      		movw r12,r24
 1543 0014 C62F      		mov r28,r22
 1544 0016 D42F      		mov r29,r20
 1545 0018 122F      		mov r17,r18
 1546 001a 0E94 0000 		call _ZN6Ds130714_isInitializedEv
 1547 001e 8111      		cpse r24,__zero_reg__
 1548 0020 00C0      		rjmp .L153
 1549               	.L156:
 1550 0022 C0E0      		ldi r28,0
 1551               	.L152:
 1552 0024 8C2F      		mov r24,r28
 1553               	/* epilogue start */
 1554 0026 DF91      		pop r29
 1555 0028 CF91      		pop r28
 1556 002a 1F91      		pop r17
 1557 002c 0F91      		pop r16
 1558 002e EF90      		pop r14
 1559 0030 DF90      		pop r13
 1560 0032 CF90      		pop r12
 1561 0034 BF90      		pop r11
 1562 0036 AF90      		pop r10
 1563 0038 0895      		ret
 1564               	.L153:
 1565 003a 5601      		movw r10,r12
 1566 003c 87E0      		ldi r24,7
 1567 003e A80E      		add r10,r24
 1568 0040 B11C      		adc r11,__zero_reg__
 1569 0042 212F      		mov r18,r17
 1570 0044 4D2F      		mov r20,r29
 1571 0046 6C2F      		mov r22,r28
 1572 0048 C501      		movw r24,r10
 1573 004a 0E94 0000 		call _ZN8DateTime7setTimeEhhhNS_10TimeFormatENS_8AmPmFlagE
 1574 004e C82F      		mov r28,r24
GAS LISTING C:\Users\Aluno\AppData\Local\Temp\ccDFeSWb.s 			page 28


 1575 0050 8111      		cpse r24,__zero_reg__
 1576 0052 00C0      		rjmp .L155
 1577 0054 C501      		movw r24,r10
 1578 0056 0E94 0000 		call _ZN8DateTime12getLastErrorEv
 1579 005a F601      		movw r30,r12
 1580 005c 9483      		std Z+4,r25
 1581 005e 8383      		std Z+3,r24
 1582 0060 00C0      		rjmp .L152
 1583               	.L155:
 1584 0062 C601      		movw r24,r12
 1585 0064 0E94 0000 		call _ZN6Ds13079_sendDataEv
 1586 0068 C82F      		mov r28,r24
 1587 006a 8823      		tst r24
 1588 006c 01F0      		breq .L156
 1589 006e F601      		movw r30,r12
 1590 0070 1482      		std Z+4,__zero_reg__
 1591 0072 1382      		std Z+3,__zero_reg__
 1592 0074 00C0      		rjmp .L152
 1594               		.section	.text._ZN6Ds130712_setCountingEb,"ax",@progbits
 1595               	.global	_ZN6Ds130712_setCountingEb
 1597               	_ZN6Ds130712_setCountingEb:
 1598 0000 EF92      		push r14
 1599 0002 FF92      		push r15
 1600 0004 0F93      		push r16
 1601 0006 1F93      		push r17
 1602 0008 CF93      		push r28
 1603 000a DF93      		push r29
 1604 000c 1F92      		push __zero_reg__
 1605 000e CDB7      		in r28,__SP_L__
 1606 0010 DEB7      		in r29,__SP_H__
 1607               	/* prologue: function */
 1608               	/* frame size = 1 */
 1609               	/* stack size = 7 */
 1610               	.L__stack_usage = 7
 1611 0012 8C01      		movw r16,r24
 1612 0014 E62E      		mov r14,r22
 1613 0016 DC01      		movw r26,r24
 1614 0018 8D91      		ld r24,X+
 1615 001a 9C91      		ld r25,X
 1616 001c DC01      		movw r26,r24
 1617 001e ED91      		ld r30,X+
 1618 0020 FC91      		ld r31,X
 1619 0022 0084      		ldd __tmp_reg__,Z+8
 1620 0024 F185      		ldd r31,Z+9
 1621 0026 E02D      		mov r30,__tmp_reg__
 1622 0028 40E0      		ldi r20,0
 1623 002a 68E6      		ldi r22,lo8(104)
 1624 002c 70E0      		ldi r23,0
 1625 002e 0995      		icall
 1626 0030 F82E      		mov r15,r24
 1627 0032 F801      		movw r30,r16
 1628 0034 8081      		ld r24,Z
 1629 0036 9181      		ldd r25,Z+1
 1630 0038 DC01      		movw r26,r24
 1631 003a ED91      		ld r30,X+
 1632 003c FC91      		ld r31,X
 1633 003e F110      		cpse r15,__zero_reg__
GAS LISTING C:\Users\Aluno\AppData\Local\Temp\ccDFeSWb.s 			page 29


 1634 0040 00C0      		rjmp .L161
 1635               	.L171:
 1636 0042 0684      		ldd __tmp_reg__,Z+14
 1637 0044 F785      		ldd r31,Z+15
 1638 0046 E02D      		mov r30,__tmp_reg__
 1639 0048 0995      		icall
 1640 004a F801      		movw r30,r16
 1641 004c 9483      		std Z+4,r25
 1642 004e 8383      		std Z+3,r24
 1643               	.L160:
 1644 0050 8F2D      		mov r24,r15
 1645               	/* epilogue start */
 1646 0052 0F90      		pop __tmp_reg__
 1647 0054 DF91      		pop r29
 1648 0056 CF91      		pop r28
 1649 0058 1F91      		pop r17
 1650 005a 0F91      		pop r16
 1651 005c FF90      		pop r15
 1652 005e EF90      		pop r14
 1653 0060 0895      		ret
 1654               	.L161:
 1655 0062 0190      		ld __tmp_reg__,Z+
 1656 0064 F081      		ld r31,Z
 1657 0066 E02D      		mov r30,__tmp_reg__
 1658 0068 21E0      		ldi r18,lo8(1)
 1659 006a 30E0      		ldi r19,0
 1660 006c AE01      		movw r20,r28
 1661 006e 4F5F      		subi r20,-1
 1662 0070 5F4F      		sbci r21,-1
 1663 0072 60E0      		ldi r22,0
 1664 0074 0995      		icall
 1665 0076 F82E      		mov r15,r24
 1666 0078 8111      		cpse r24,__zero_reg__
 1667 007a 00C0      		rjmp .L163
 1668 007c F801      		movw r30,r16
 1669 007e 8081      		ld r24,Z
 1670 0080 9181      		ldd r25,Z+1
 1671 0082 DC01      		movw r26,r24
 1672 0084 ED91      		ld r30,X+
 1673 0086 FC91      		ld r31,X
 1674 0088 00C0      		rjmp .L171
 1675               	.L163:
 1676 008a 8981      		ldd r24,Y+1
 1677 008c 982F      		mov r25,r24
 1678 008e 9095      		com r25
 1679 0090 991F      		rol r25
 1680 0092 9927      		clr r25
 1681 0094 991F      		rol r25
 1682 0096 E916      		cp r14,r25
 1683 0098 01F4      		brne .+2
 1684 009a 00C0      		rjmp .L165
 1685 009c EE20      		tst r14
 1686 009e 01F0      		breq .L166
 1687 00a0 8F77      		andi r24,lo8(127)
 1688               	.L169:
 1689 00a2 8983      		std Y+1,r24
 1690 00a4 D801      		movw r26,r16
GAS LISTING C:\Users\Aluno\AppData\Local\Temp\ccDFeSWb.s 			page 30


 1691 00a6 8D91      		ld r24,X+
 1692 00a8 9C91      		ld r25,X
 1693 00aa DC01      		movw r26,r24
 1694 00ac ED91      		ld r30,X+
 1695 00ae FC91      		ld r31,X
 1696 00b0 0084      		ldd __tmp_reg__,Z+8
 1697 00b2 F185      		ldd r31,Z+9
 1698 00b4 E02D      		mov r30,__tmp_reg__
 1699 00b6 40E0      		ldi r20,0
 1700 00b8 68E6      		ldi r22,lo8(104)
 1701 00ba 70E0      		ldi r23,0
 1702 00bc 0995      		icall
 1703 00be F801      		movw r30,r16
 1704 00c0 A081      		ld r26,Z
 1705 00c2 B181      		ldd r27,Z+1
 1706 00c4 ED91      		ld r30,X+
 1707 00c6 FC91      		ld r31,X
 1708 00c8 1197      		sbiw r26,1
 1709 00ca 8111      		cpse r24,__zero_reg__
 1710 00cc 00C0      		rjmp .L168
 1711 00ce 0684      		ldd __tmp_reg__,Z+14
 1712 00d0 F785      		ldd r31,Z+15
 1713 00d2 E02D      		mov r30,__tmp_reg__
 1714 00d4 CD01      		movw r24,r26
 1715 00d6 0995      		icall
 1716 00d8 D801      		movw r26,r16
 1717 00da 1496      		adiw r26,3+1
 1718 00dc 9C93      		st X,r25
 1719 00de 8E93      		st -X,r24
 1720 00e0 1397      		sbiw r26,3
 1721               	.L170:
 1722 00e2 F12C      		mov r15,__zero_reg__
 1723 00e4 00C0      		rjmp .L160
 1724               	.L166:
 1725 00e6 8068      		ori r24,lo8(-128)
 1726 00e8 00C0      		rjmp .L169
 1727               	.L168:
 1728 00ea 0680      		ldd __tmp_reg__,Z+6
 1729 00ec F781      		ldd r31,Z+7
 1730 00ee E02D      		mov r30,__tmp_reg__
 1731 00f0 21E0      		ldi r18,lo8(1)
 1732 00f2 30E0      		ldi r19,0
 1733 00f4 AE01      		movw r20,r28
 1734 00f6 4F5F      		subi r20,-1
 1735 00f8 5F4F      		sbci r21,-1
 1736 00fa 60E0      		ldi r22,0
 1737 00fc CD01      		movw r24,r26
 1738 00fe 0995      		icall
 1739 0100 8111      		cpse r24,__zero_reg__
 1740 0102 00C0      		rjmp .L165
 1741 0104 F801      		movw r30,r16
 1742 0106 8081      		ld r24,Z
 1743 0108 9181      		ldd r25,Z+1
 1744 010a DC01      		movw r26,r24
 1745 010c ED91      		ld r30,X+
 1746 010e FC91      		ld r31,X
 1747 0110 0684      		ldd __tmp_reg__,Z+14
GAS LISTING C:\Users\Aluno\AppData\Local\Temp\ccDFeSWb.s 			page 31


 1748 0112 F785      		ldd r31,Z+15
 1749 0114 E02D      		mov r30,__tmp_reg__
 1750 0116 0995      		icall
 1751 0118 F801      		movw r30,r16
 1752 011a 9483      		std Z+4,r25
 1753 011c 8383      		std Z+3,r24
 1754 011e 00C0      		rjmp .L170
 1755               	.L165:
 1756 0120 D801      		movw r26,r16
 1757 0122 1296      		adiw r26,2
 1758 0124 8C91      		ld r24,X
 1759 0126 1297      		sbiw r26,2
 1760 0128 8E7F      		andi r24,~(1<<0)
 1761 012a E0FE      		sbrs r14,0
 1762 012c 8160      		ori r24,1<<0
 1763 012e 1296      		adiw r26,2
 1764 0130 8C93      		st X,r24
 1765 0132 1297      		sbiw r26,2
 1766 0134 1496      		adiw r26,3+1
 1767 0136 1C92      		st X,__zero_reg__
 1768 0138 1E92      		st -X,__zero_reg__
 1769 013a 1397      		sbiw r26,3
 1770 013c 00C0      		rjmp .L160
 1772               		.section	.text._ZN6Ds130710clockStartEv,"ax",@progbits
 1773               	.global	_ZN6Ds130710clockStartEv
 1775               	_ZN6Ds130710clockStartEv:
 1776 0000 CF93      		push r28
 1777 0002 DF93      		push r29
 1778               	/* prologue: function */
 1779               	/* frame size = 0 */
 1780               	/* stack size = 2 */
 1781               	.L__stack_usage = 2
 1782 0004 EC01      		movw r28,r24
 1783 0006 61E0      		ldi r22,lo8(1)
 1784 0008 0E94 0000 		call _ZN6Ds130712_setCountingEb
 1785 000c 8823      		tst r24
 1786 000e 01F0      		breq .L172
 1787 0010 1C82      		std Y+4,__zero_reg__
 1788 0012 1B82      		std Y+3,__zero_reg__
 1789               	.L172:
 1790               	/* epilogue start */
 1791 0014 DF91      		pop r29
 1792 0016 CF91      		pop r28
 1793 0018 0895      		ret
 1795               		.section	.text._ZN6Ds13079clockStopEv,"ax",@progbits
 1796               	.global	_ZN6Ds13079clockStopEv
 1798               	_ZN6Ds13079clockStopEv:
 1799 0000 CF93      		push r28
 1800 0002 DF93      		push r29
 1801               	/* prologue: function */
 1802               	/* frame size = 0 */
 1803               	/* stack size = 2 */
 1804               	.L__stack_usage = 2
 1805 0004 EC01      		movw r28,r24
 1806 0006 60E0      		ldi r22,0
 1807 0008 0E94 0000 		call _ZN6Ds130712_setCountingEb
 1808 000c 8823      		tst r24
GAS LISTING C:\Users\Aluno\AppData\Local\Temp\ccDFeSWb.s 			page 32


 1809 000e 01F0      		breq .L177
 1810 0010 1C82      		std Y+4,__zero_reg__
 1811 0012 1B82      		std Y+3,__zero_reg__
 1812               	.L177:
 1813               	/* epilogue start */
 1814 0014 DF91      		pop r29
 1815 0016 CF91      		pop r28
 1816 0018 0895      		ret
 1818               		.ident	"GCC: (AVR_8_bit_GNU_Toolchain_3.7.0_1796) 7.3.0"
GAS LISTING C:\Users\Aluno\AppData\Local\Temp\ccDFeSWb.s 			page 33


DEFINED SYMBOLS
                            *ABS*:0000000000000000 funsapeLibDs1307.cpp
C:\Users\Aluno\AppData\Local\Temp\ccDFeSWb.s:2      *ABS*:000000000000003e __SP_H__
C:\Users\Aluno\AppData\Local\Temp\ccDFeSWb.s:3      *ABS*:000000000000003d __SP_L__
C:\Users\Aluno\AppData\Local\Temp\ccDFeSWb.s:4      *ABS*:000000000000003f __SREG__
C:\Users\Aluno\AppData\Local\Temp\ccDFeSWb.s:5      *ABS*:0000000000000000 __tmp_reg__
C:\Users\Aluno\AppData\Local\Temp\ccDFeSWb.s:6      *ABS*:0000000000000001 __zero_reg__
C:\Users\Aluno\AppData\Local\Temp\ccDFeSWb.s:11     .text._Z7getTickv:0000000000000000 _Z7getTickv
C:\Users\Aluno\AppData\Local\Temp\ccDFeSWb.s:25     .text._ZN6Ds1307D2Ev:0000000000000000 _ZN6Ds1307D2Ev
C:\Users\Aluno\AppData\Local\Temp\ccDFeSWb.s:25     .text._ZN6Ds1307D2Ev:0000000000000000 _ZN6Ds1307D1Ev
C:\Users\Aluno\AppData\Local\Temp\ccDFeSWb.s:38     .text._ZN6Ds130712getLastErrorEv:0000000000000000 _ZN6Ds130712getLastErrorEv
C:\Users\Aluno\AppData\Local\Temp\ccDFeSWb.s:52     .text._ZN6Ds130710getRamDataEhPhh:0000000000000000 _ZN6Ds130710getRamDataEhPhh
C:\Users\Aluno\AppData\Local\Temp\ccDFeSWb.s:166    .text._ZN6Ds130710setRamDataEhPhh:0000000000000000 _ZN6Ds130710setRamDataEhPhh
C:\Users\Aluno\AppData\Local\Temp\ccDFeSWb.s:280    .text._ZN6Ds130710_clearDataEv:0000000000000000 _ZN6Ds130710_clearDataEv
C:\Users\Aluno\AppData\Local\Temp\ccDFeSWb.s:331    .text._ZN6Ds1307C2Ev:0000000000000000 _ZN6Ds1307C2Ev
C:\Users\Aluno\AppData\Local\Temp\ccDFeSWb.s:331    .text._ZN6Ds1307C2Ev:0000000000000000 _ZN6Ds1307C1Ev
C:\Users\Aluno\AppData\Local\Temp\ccDFeSWb.s:355    .text._ZN6Ds13074initEP3Bus:0000000000000000 _ZN6Ds13074initEP3Bus
C:\Users\Aluno\AppData\Local\Temp\ccDFeSWb.s:409    .text._ZN6Ds130714_isInitializedEv:0000000000000000 _ZN6Ds130714_isInitializedEv
C:\Users\Aluno\AppData\Local\Temp\ccDFeSWb.s:435    .text._ZN6Ds130722setSquareWaveGeneratorENS_10SquareWaveE:0000000000000000 _ZN6Ds130722setSquareWaveGeneratorENS_10SquareWaveE
C:\Users\Aluno\AppData\Local\Temp\ccDFeSWb.s:602    .text._ZN6Ds13078_getDataEv:0000000000000000 _ZN6Ds13078_getDataEv
C:\Users\Aluno\AppData\Local\Temp\ccDFeSWb.s:833    .text._ZN6Ds13077getDateEPjPhS1_S1_:0000000000000000 _ZN6Ds13077getDateEPjPhS1_S1_
C:\Users\Aluno\AppData\Local\Temp\ccDFeSWb.s:992    .text._ZN6Ds130711getDateTimeEP8DateTime:0000000000000000 _ZN6Ds130711getDateTimeEP8DateTime
C:\Users\Aluno\AppData\Local\Temp\ccDFeSWb.s:1045   .text._ZN6Ds13077getTimeEPhS0_S0_N8DateTime10TimeFormatEPNS1_8AmPmFlagE:0000000000000000 _ZN6Ds13077getTimeEPhS0_S0_N8DateTime10TimeFormatEPNS1_8AmPmFlagE
C:\Users\Aluno\AppData\Local\Temp\ccDFeSWb.s:1143   .text._ZN6Ds13079_sendDataEv:0000000000000000 _ZN6Ds13079_sendDataEv
C:\Users\Aluno\AppData\Local\Temp\ccDFeSWb.s:1400   .text._ZN6Ds13077setDateEjhh:0000000000000000 _ZN6Ds13077setDateEjhh
C:\Users\Aluno\AppData\Local\Temp\ccDFeSWb.s:1467   .text._ZN6Ds130711setDateTimeE8DateTime:0000000000000000 _ZN6Ds130711setDateTimeE8DateTime
C:\Users\Aluno\AppData\Local\Temp\ccDFeSWb.s:1528   .text._ZN6Ds13077setTimeEhhhN8DateTime10TimeFormatENS0_8AmPmFlagE:0000000000000000 _ZN6Ds13077setTimeEhhhN8DateTime10TimeFormatENS0_8AmPmFlagE
C:\Users\Aluno\AppData\Local\Temp\ccDFeSWb.s:1597   .text._ZN6Ds130712_setCountingEb:0000000000000000 _ZN6Ds130712_setCountingEb
C:\Users\Aluno\AppData\Local\Temp\ccDFeSWb.s:1775   .text._ZN6Ds130710clockStartEv:0000000000000000 _ZN6Ds130710clockStartEv
C:\Users\Aluno\AppData\Local\Temp\ccDFeSWb.s:1798   .text._ZN6Ds13079clockStopEv:0000000000000000 _ZN6Ds13079clockStopEv

UNDEFINED SYMBOLS
_ZN8DateTimeD1Ev
_ZN8DateTime7setDateEjNS_5MonthEh
_ZN8DateTime7setTimeEhhhNS_10TimeFormatENS_8AmPmFlagE
_ZN8DateTimeC1Ev
_ZN8DateTime12getLastErrorEv
_ZN8DateTime7getDateEPjPNS_5MonthEPhPNS_7WeekDayE
_ZN8DateTime7getTimeEPhS0_S0_NS_10TimeFormatEPNS_8AmPmFlagE
_ZN8DateTime13getTimeFormatEPNS_10TimeFormatE
__udivmodqi4
__udivmodhi4
_ZN8DateTime9isDateSetEv
_ZN8DateTime9isTimeSetEv
